
clic-mbox-ps-ft:     file format elf32-littleriscv


Disassembly of section .vectors:

1c000400 <__irq_vector_base>:
1c000400:	5000006f          	j	1c000900 <freertos_risc_v_trap_handler>
1c000404:	4fc0006f          	j	1c000900 <freertos_risc_v_trap_handler>
1c000408:	4f80006f          	j	1c000900 <freertos_risc_v_trap_handler>
1c00040c:	4f40006f          	j	1c000900 <freertos_risc_v_trap_handler>
1c000410:	4f00006f          	j	1c000900 <freertos_risc_v_trap_handler>
1c000414:	4ec0006f          	j	1c000900 <freertos_risc_v_trap_handler>
1c000418:	4e80006f          	j	1c000900 <freertos_risc_v_trap_handler>
1c00041c:	4e40006f          	j	1c000900 <freertos_risc_v_trap_handler>
1c000420:	4e00006f          	j	1c000900 <freertos_risc_v_trap_handler>
1c000424:	4dc0006f          	j	1c000900 <freertos_risc_v_trap_handler>
1c000428:	4d80006f          	j	1c000900 <freertos_risc_v_trap_handler>
1c00042c:	4d40006f          	j	1c000900 <freertos_risc_v_trap_handler>
1c000430:	4d00006f          	j	1c000900 <freertos_risc_v_trap_handler>
1c000434:	4cc0006f          	j	1c000900 <freertos_risc_v_trap_handler>
1c000438:	4c80006f          	j	1c000900 <freertos_risc_v_trap_handler>
1c00043c:	4c40006f          	j	1c000900 <freertos_risc_v_trap_handler>
1c000440:	4c00006f          	j	1c000900 <freertos_risc_v_trap_handler>
1c000444:	4bc0006f          	j	1c000900 <freertos_risc_v_trap_handler>
1c000448:	4b80006f          	j	1c000900 <freertos_risc_v_trap_handler>
1c00044c:	4b40006f          	j	1c000900 <freertos_risc_v_trap_handler>
1c000450:	4b00006f          	j	1c000900 <freertos_risc_v_trap_handler>
1c000454:	4ac0006f          	j	1c000900 <freertos_risc_v_trap_handler>
1c000458:	4a80006f          	j	1c000900 <freertos_risc_v_trap_handler>
1c00045c:	4a40006f          	j	1c000900 <freertos_risc_v_trap_handler>
1c000460:	4a00006f          	j	1c000900 <freertos_risc_v_trap_handler>
1c000464:	49c0006f          	j	1c000900 <freertos_risc_v_trap_handler>
1c000468:	4980006f          	j	1c000900 <freertos_risc_v_trap_handler>
1c00046c:	4940006f          	j	1c000900 <freertos_risc_v_trap_handler>
1c000470:	4900006f          	j	1c000900 <freertos_risc_v_trap_handler>
1c000474:	48c0006f          	j	1c000900 <freertos_risc_v_trap_handler>
1c000478:	4880006f          	j	1c000900 <freertos_risc_v_trap_handler>
1c00047c:	4840006f          	j	1c000900 <freertos_risc_v_trap_handler>
1c000480:	4800006f          	j	1c000900 <freertos_risc_v_trap_handler>
1c000484:	47c0006f          	j	1c000900 <freertos_risc_v_trap_handler>
1c000488:	4780006f          	j	1c000900 <freertos_risc_v_trap_handler>
1c00048c:	4740006f          	j	1c000900 <freertos_risc_v_trap_handler>
1c000490:	4700006f          	j	1c000900 <freertos_risc_v_trap_handler>
1c000494:	46c0006f          	j	1c000900 <freertos_risc_v_trap_handler>
1c000498:	4680006f          	j	1c000900 <freertos_risc_v_trap_handler>
1c00049c:	4640006f          	j	1c000900 <freertos_risc_v_trap_handler>
1c0004a0:	4600006f          	j	1c000900 <freertos_risc_v_trap_handler>
1c0004a4:	45c0006f          	j	1c000900 <freertos_risc_v_trap_handler>
1c0004a8:	4580006f          	j	1c000900 <freertos_risc_v_trap_handler>
1c0004ac:	4540006f          	j	1c000900 <freertos_risc_v_trap_handler>
1c0004b0:	4500006f          	j	1c000900 <freertos_risc_v_trap_handler>
1c0004b4:	44c0006f          	j	1c000900 <freertos_risc_v_trap_handler>
1c0004b8:	4480006f          	j	1c000900 <freertos_risc_v_trap_handler>
1c0004bc:	4440006f          	j	1c000900 <freertos_risc_v_trap_handler>
1c0004c0:	4400006f          	j	1c000900 <freertos_risc_v_trap_handler>
1c0004c4:	43c0006f          	j	1c000900 <freertos_risc_v_trap_handler>
1c0004c8:	4380006f          	j	1c000900 <freertos_risc_v_trap_handler>
1c0004cc:	4340006f          	j	1c000900 <freertos_risc_v_trap_handler>
1c0004d0:	4300006f          	j	1c000900 <freertos_risc_v_trap_handler>
1c0004d4:	42c0006f          	j	1c000900 <freertos_risc_v_trap_handler>
1c0004d8:	4280006f          	j	1c000900 <freertos_risc_v_trap_handler>
1c0004dc:	4240006f          	j	1c000900 <freertos_risc_v_trap_handler>
1c0004e0:	4200006f          	j	1c000900 <freertos_risc_v_trap_handler>
1c0004e4:	41c0006f          	j	1c000900 <freertos_risc_v_trap_handler>
1c0004e8:	4180006f          	j	1c000900 <freertos_risc_v_trap_handler>
1c0004ec:	4140006f          	j	1c000900 <freertos_risc_v_trap_handler>
1c0004f0:	4100006f          	j	1c000900 <freertos_risc_v_trap_handler>
1c0004f4:	40c0006f          	j	1c000900 <freertos_risc_v_trap_handler>
1c0004f8:	4080006f          	j	1c000900 <freertos_risc_v_trap_handler>
1c0004fc:	4040006f          	j	1c000900 <freertos_risc_v_trap_handler>
1c000500:	4000006f          	j	1c000900 <freertos_risc_v_trap_handler>
1c000504:	3fc0006f          	j	1c000900 <freertos_risc_v_trap_handler>
1c000508:	3f80006f          	j	1c000900 <freertos_risc_v_trap_handler>
1c00050c:	3f40006f          	j	1c000900 <freertos_risc_v_trap_handler>
1c000510:	3f00006f          	j	1c000900 <freertos_risc_v_trap_handler>
1c000514:	3ec0006f          	j	1c000900 <freertos_risc_v_trap_handler>
1c000518:	3e80006f          	j	1c000900 <freertos_risc_v_trap_handler>
1c00051c:	3e40006f          	j	1c000900 <freertos_risc_v_trap_handler>
1c000520:	3e00006f          	j	1c000900 <freertos_risc_v_trap_handler>
1c000524:	3dc0006f          	j	1c000900 <freertos_risc_v_trap_handler>
1c000528:	3d80006f          	j	1c000900 <freertos_risc_v_trap_handler>
1c00052c:	3d40006f          	j	1c000900 <freertos_risc_v_trap_handler>
1c000530:	3d00006f          	j	1c000900 <freertos_risc_v_trap_handler>
1c000534:	3cc0006f          	j	1c000900 <freertos_risc_v_trap_handler>
1c000538:	3c80006f          	j	1c000900 <freertos_risc_v_trap_handler>
1c00053c:	3c40006f          	j	1c000900 <freertos_risc_v_trap_handler>
1c000540:	3c00006f          	j	1c000900 <freertos_risc_v_trap_handler>
1c000544:	3bc0006f          	j	1c000900 <freertos_risc_v_trap_handler>
1c000548:	3b80006f          	j	1c000900 <freertos_risc_v_trap_handler>
1c00054c:	3b40006f          	j	1c000900 <freertos_risc_v_trap_handler>
1c000550:	3b00006f          	j	1c000900 <freertos_risc_v_trap_handler>
1c000554:	3ac0006f          	j	1c000900 <freertos_risc_v_trap_handler>
1c000558:	3a80006f          	j	1c000900 <freertos_risc_v_trap_handler>
1c00055c:	3a40006f          	j	1c000900 <freertos_risc_v_trap_handler>
1c000560:	3a00006f          	j	1c000900 <freertos_risc_v_trap_handler>
1c000564:	39c0006f          	j	1c000900 <freertos_risc_v_trap_handler>
1c000568:	3980006f          	j	1c000900 <freertos_risc_v_trap_handler>
1c00056c:	3940006f          	j	1c000900 <freertos_risc_v_trap_handler>
1c000570:	3900006f          	j	1c000900 <freertos_risc_v_trap_handler>
1c000574:	38c0006f          	j	1c000900 <freertos_risc_v_trap_handler>
1c000578:	3880006f          	j	1c000900 <freertos_risc_v_trap_handler>
1c00057c:	3840006f          	j	1c000900 <freertos_risc_v_trap_handler>
1c000580:	3800006f          	j	1c000900 <freertos_risc_v_trap_handler>
1c000584:	37c0006f          	j	1c000900 <freertos_risc_v_trap_handler>
1c000588:	3780006f          	j	1c000900 <freertos_risc_v_trap_handler>
1c00058c:	3740006f          	j	1c000900 <freertos_risc_v_trap_handler>
1c000590:	3700006f          	j	1c000900 <freertos_risc_v_trap_handler>
1c000594:	36c0006f          	j	1c000900 <freertos_risc_v_trap_handler>
1c000598:	3680006f          	j	1c000900 <freertos_risc_v_trap_handler>
1c00059c:	3640006f          	j	1c000900 <freertos_risc_v_trap_handler>
1c0005a0:	3600006f          	j	1c000900 <freertos_risc_v_trap_handler>
1c0005a4:	35c0006f          	j	1c000900 <freertos_risc_v_trap_handler>
1c0005a8:	3580006f          	j	1c000900 <freertos_risc_v_trap_handler>
1c0005ac:	3540006f          	j	1c000900 <freertos_risc_v_trap_handler>
1c0005b0:	3500006f          	j	1c000900 <freertos_risc_v_trap_handler>
1c0005b4:	34c0006f          	j	1c000900 <freertos_risc_v_trap_handler>
1c0005b8:	3480006f          	j	1c000900 <freertos_risc_v_trap_handler>
1c0005bc:	3440006f          	j	1c000900 <freertos_risc_v_trap_handler>
1c0005c0:	3400006f          	j	1c000900 <freertos_risc_v_trap_handler>
1c0005c4:	33c0006f          	j	1c000900 <freertos_risc_v_trap_handler>
1c0005c8:	3380006f          	j	1c000900 <freertos_risc_v_trap_handler>
1c0005cc:	3340006f          	j	1c000900 <freertos_risc_v_trap_handler>
1c0005d0:	3300006f          	j	1c000900 <freertos_risc_v_trap_handler>
1c0005d4:	32c0006f          	j	1c000900 <freertos_risc_v_trap_handler>
1c0005d8:	3280006f          	j	1c000900 <freertos_risc_v_trap_handler>
1c0005dc:	3240006f          	j	1c000900 <freertos_risc_v_trap_handler>
1c0005e0:	3200006f          	j	1c000900 <freertos_risc_v_trap_handler>
1c0005e4:	31c0006f          	j	1c000900 <freertos_risc_v_trap_handler>
1c0005e8:	3180006f          	j	1c000900 <freertos_risc_v_trap_handler>
1c0005ec:	3140006f          	j	1c000900 <freertos_risc_v_trap_handler>
1c0005f0:	3100006f          	j	1c000900 <freertos_risc_v_trap_handler>
1c0005f4:	30c0006f          	j	1c000900 <freertos_risc_v_trap_handler>
1c0005f8:	3080006f          	j	1c000900 <freertos_risc_v_trap_handler>
1c0005fc:	3040006f          	j	1c000900 <freertos_risc_v_trap_handler>
1c000600:	3000006f          	j	1c000900 <freertos_risc_v_trap_handler>
1c000604:	2fc0006f          	j	1c000900 <freertos_risc_v_trap_handler>
1c000608:	2f80006f          	j	1c000900 <freertos_risc_v_trap_handler>
1c00060c:	2f40006f          	j	1c000900 <freertos_risc_v_trap_handler>
1c000610:	2f00006f          	j	1c000900 <freertos_risc_v_trap_handler>
1c000614:	2ec0006f          	j	1c000900 <freertos_risc_v_trap_handler>
1c000618:	2e80006f          	j	1c000900 <freertos_risc_v_trap_handler>
1c00061c:	2e40006f          	j	1c000900 <freertos_risc_v_trap_handler>
1c000620:	2e00006f          	j	1c000900 <freertos_risc_v_trap_handler>
1c000624:	2dc0006f          	j	1c000900 <freertos_risc_v_trap_handler>
1c000628:	2d80006f          	j	1c000900 <freertos_risc_v_trap_handler>
1c00062c:	2d40006f          	j	1c000900 <freertos_risc_v_trap_handler>
1c000630:	2d00006f          	j	1c000900 <freertos_risc_v_trap_handler>
1c000634:	2cc0006f          	j	1c000900 <freertos_risc_v_trap_handler>
1c000638:	2c80006f          	j	1c000900 <freertos_risc_v_trap_handler>
1c00063c:	2c40006f          	j	1c000900 <freertos_risc_v_trap_handler>
1c000640:	2c00006f          	j	1c000900 <freertos_risc_v_trap_handler>
1c000644:	2bc0006f          	j	1c000900 <freertos_risc_v_trap_handler>
1c000648:	2b80006f          	j	1c000900 <freertos_risc_v_trap_handler>
1c00064c:	2b40006f          	j	1c000900 <freertos_risc_v_trap_handler>
1c000650:	2b00006f          	j	1c000900 <freertos_risc_v_trap_handler>
1c000654:	2ac0006f          	j	1c000900 <freertos_risc_v_trap_handler>
1c000658:	2a80006f          	j	1c000900 <freertos_risc_v_trap_handler>
1c00065c:	2a40006f          	j	1c000900 <freertos_risc_v_trap_handler>
1c000660:	2a00006f          	j	1c000900 <freertos_risc_v_trap_handler>
1c000664:	29c0006f          	j	1c000900 <freertos_risc_v_trap_handler>
1c000668:	2980006f          	j	1c000900 <freertos_risc_v_trap_handler>
1c00066c:	2940006f          	j	1c000900 <freertos_risc_v_trap_handler>
1c000670:	2900006f          	j	1c000900 <freertos_risc_v_trap_handler>
1c000674:	28c0006f          	j	1c000900 <freertos_risc_v_trap_handler>
1c000678:	2880006f          	j	1c000900 <freertos_risc_v_trap_handler>
1c00067c:	2840006f          	j	1c000900 <freertos_risc_v_trap_handler>
1c000680:	2800006f          	j	1c000900 <freertos_risc_v_trap_handler>
1c000684:	27c0006f          	j	1c000900 <freertos_risc_v_trap_handler>
1c000688:	2780006f          	j	1c000900 <freertos_risc_v_trap_handler>
1c00068c:	2740006f          	j	1c000900 <freertos_risc_v_trap_handler>
1c000690:	2700006f          	j	1c000900 <freertos_risc_v_trap_handler>
1c000694:	26c0006f          	j	1c000900 <freertos_risc_v_trap_handler>
1c000698:	2680006f          	j	1c000900 <freertos_risc_v_trap_handler>
1c00069c:	2640006f          	j	1c000900 <freertos_risc_v_trap_handler>
1c0006a0:	2600006f          	j	1c000900 <freertos_risc_v_trap_handler>
1c0006a4:	25c0006f          	j	1c000900 <freertos_risc_v_trap_handler>
1c0006a8:	2580006f          	j	1c000900 <freertos_risc_v_trap_handler>
1c0006ac:	2540006f          	j	1c000900 <freertos_risc_v_trap_handler>
1c0006b0:	2500006f          	j	1c000900 <freertos_risc_v_trap_handler>
1c0006b4:	24c0006f          	j	1c000900 <freertos_risc_v_trap_handler>
1c0006b8:	2480006f          	j	1c000900 <freertos_risc_v_trap_handler>
1c0006bc:	2440006f          	j	1c000900 <freertos_risc_v_trap_handler>
1c0006c0:	2400006f          	j	1c000900 <freertos_risc_v_trap_handler>
1c0006c4:	23c0006f          	j	1c000900 <freertos_risc_v_trap_handler>
1c0006c8:	2380006f          	j	1c000900 <freertos_risc_v_trap_handler>
1c0006cc:	2340006f          	j	1c000900 <freertos_risc_v_trap_handler>
1c0006d0:	2300006f          	j	1c000900 <freertos_risc_v_trap_handler>
1c0006d4:	22c0006f          	j	1c000900 <freertos_risc_v_trap_handler>
1c0006d8:	2280006f          	j	1c000900 <freertos_risc_v_trap_handler>
1c0006dc:	2240006f          	j	1c000900 <freertos_risc_v_trap_handler>
1c0006e0:	2200006f          	j	1c000900 <freertos_risc_v_trap_handler>
1c0006e4:	21c0006f          	j	1c000900 <freertos_risc_v_trap_handler>
1c0006e8:	2180006f          	j	1c000900 <freertos_risc_v_trap_handler>
1c0006ec:	2140006f          	j	1c000900 <freertos_risc_v_trap_handler>
1c0006f0:	2100006f          	j	1c000900 <freertos_risc_v_trap_handler>
1c0006f4:	20c0006f          	j	1c000900 <freertos_risc_v_trap_handler>
1c0006f8:	2080006f          	j	1c000900 <freertos_risc_v_trap_handler>
1c0006fc:	2040006f          	j	1c000900 <freertos_risc_v_trap_handler>
1c000700:	2000006f          	j	1c000900 <freertos_risc_v_trap_handler>
1c000704:	1fc0006f          	j	1c000900 <freertos_risc_v_trap_handler>
1c000708:	1f80006f          	j	1c000900 <freertos_risc_v_trap_handler>
1c00070c:	1f40006f          	j	1c000900 <freertos_risc_v_trap_handler>
1c000710:	1f00006f          	j	1c000900 <freertos_risc_v_trap_handler>
1c000714:	1ec0006f          	j	1c000900 <freertos_risc_v_trap_handler>
1c000718:	1e80006f          	j	1c000900 <freertos_risc_v_trap_handler>
1c00071c:	1e40006f          	j	1c000900 <freertos_risc_v_trap_handler>
1c000720:	1e00006f          	j	1c000900 <freertos_risc_v_trap_handler>
1c000724:	1dc0006f          	j	1c000900 <freertos_risc_v_trap_handler>
1c000728:	1d80006f          	j	1c000900 <freertos_risc_v_trap_handler>
1c00072c:	1d40006f          	j	1c000900 <freertos_risc_v_trap_handler>
1c000730:	1d00006f          	j	1c000900 <freertos_risc_v_trap_handler>
1c000734:	1cc0006f          	j	1c000900 <freertos_risc_v_trap_handler>
1c000738:	1c80006f          	j	1c000900 <freertos_risc_v_trap_handler>
1c00073c:	1c40006f          	j	1c000900 <freertos_risc_v_trap_handler>
1c000740:	1c00006f          	j	1c000900 <freertos_risc_v_trap_handler>
1c000744:	1bc0006f          	j	1c000900 <freertos_risc_v_trap_handler>
1c000748:	1b80006f          	j	1c000900 <freertos_risc_v_trap_handler>
1c00074c:	1b40006f          	j	1c000900 <freertos_risc_v_trap_handler>
1c000750:	1b00006f          	j	1c000900 <freertos_risc_v_trap_handler>
1c000754:	1ac0006f          	j	1c000900 <freertos_risc_v_trap_handler>
1c000758:	1a80006f          	j	1c000900 <freertos_risc_v_trap_handler>
1c00075c:	1a40006f          	j	1c000900 <freertos_risc_v_trap_handler>
1c000760:	1a00006f          	j	1c000900 <freertos_risc_v_trap_handler>
1c000764:	19c0006f          	j	1c000900 <freertos_risc_v_trap_handler>
1c000768:	1980006f          	j	1c000900 <freertos_risc_v_trap_handler>
1c00076c:	1940006f          	j	1c000900 <freertos_risc_v_trap_handler>
1c000770:	1900006f          	j	1c000900 <freertos_risc_v_trap_handler>
1c000774:	18c0006f          	j	1c000900 <freertos_risc_v_trap_handler>
1c000778:	1880006f          	j	1c000900 <freertos_risc_v_trap_handler>
1c00077c:	1840006f          	j	1c000900 <freertos_risc_v_trap_handler>
1c000780:	1800006f          	j	1c000900 <freertos_risc_v_trap_handler>
1c000784:	17c0006f          	j	1c000900 <freertos_risc_v_trap_handler>
1c000788:	1780006f          	j	1c000900 <freertos_risc_v_trap_handler>
1c00078c:	1740006f          	j	1c000900 <freertos_risc_v_trap_handler>
1c000790:	1700006f          	j	1c000900 <freertos_risc_v_trap_handler>
1c000794:	16c0006f          	j	1c000900 <freertos_risc_v_trap_handler>
1c000798:	1680006f          	j	1c000900 <freertos_risc_v_trap_handler>
1c00079c:	1640006f          	j	1c000900 <freertos_risc_v_trap_handler>
1c0007a0:	1600006f          	j	1c000900 <freertos_risc_v_trap_handler>
1c0007a4:	15c0006f          	j	1c000900 <freertos_risc_v_trap_handler>
1c0007a8:	1580006f          	j	1c000900 <freertos_risc_v_trap_handler>
1c0007ac:	1540006f          	j	1c000900 <freertos_risc_v_trap_handler>
1c0007b0:	1500006f          	j	1c000900 <freertos_risc_v_trap_handler>
1c0007b4:	14c0006f          	j	1c000900 <freertos_risc_v_trap_handler>
1c0007b8:	1480006f          	j	1c000900 <freertos_risc_v_trap_handler>
1c0007bc:	1440006f          	j	1c000900 <freertos_risc_v_trap_handler>
1c0007c0:	1400006f          	j	1c000900 <freertos_risc_v_trap_handler>
1c0007c4:	13c0006f          	j	1c000900 <freertos_risc_v_trap_handler>
1c0007c8:	1380006f          	j	1c000900 <freertos_risc_v_trap_handler>
1c0007cc:	1340006f          	j	1c000900 <freertos_risc_v_trap_handler>
1c0007d0:	1300006f          	j	1c000900 <freertos_risc_v_trap_handler>
1c0007d4:	12c0006f          	j	1c000900 <freertos_risc_v_trap_handler>
1c0007d8:	1280006f          	j	1c000900 <freertos_risc_v_trap_handler>
1c0007dc:	1240006f          	j	1c000900 <freertos_risc_v_trap_handler>
1c0007e0:	1200006f          	j	1c000900 <freertos_risc_v_trap_handler>
1c0007e4:	11c0006f          	j	1c000900 <freertos_risc_v_trap_handler>
1c0007e8:	1180006f          	j	1c000900 <freertos_risc_v_trap_handler>
1c0007ec:	1140006f          	j	1c000900 <freertos_risc_v_trap_handler>
1c0007f0:	1100006f          	j	1c000900 <freertos_risc_v_trap_handler>
1c0007f4:	10c0006f          	j	1c000900 <freertos_risc_v_trap_handler>
1c0007f8:	1080006f          	j	1c000900 <freertos_risc_v_trap_handler>
1c0007fc:	1040006f          	j	1c000900 <freertos_risc_v_trap_handler>

Disassembly of section .text:

1c000880 <_start>:
1c000880:	00008197          	auipc	gp,0x8
1c000884:	36c18193          	addi	gp,gp,876 # 1c008bec <__global_pointer$>
1c000888:	f1402573          	csrr	a0,mhartid
1c00088c:	01f57593          	andi	a1,a0,31
1c000890:	8115                	srli	a0,a0,0x5
1c000892:	467d                	li	a2,31
1c000894:	00a60463          	beq	a2,a0,1c00089c <_start+0x1c>
1c000898:	5aa0006f          	j	1c000e42 <cluster_exec_loop>
1c00089c:	0000d117          	auipc	sp,0xd
1c0008a0:	ce410113          	addi	sp,sp,-796 # 1c00d580 <__freertos_irq_stack_top>
1c0008a4:	00000517          	auipc	a0,0x0
1c0008a8:	b5c50513          	addi	a0,a0,-1188 # 1c000400 <__irq_vector_base>
1c0008ac:	00156513          	ori	a0,a0,1
1c0008b0:	30551073          	csrw	mtvec,a0
1c0008b4:	30751073          	csrw	0x307,a0
1c0008b8:	00008297          	auipc	t0,0x8
1c0008bc:	bb028293          	addi	t0,t0,-1104 # 1c008468 <pxReadyTasksLists>
1c0008c0:	19418313          	addi	t1,gp,404 # 1c008d80 <ucHeap>
1c0008c4:	0002a023          	sw	zero,0(t0)
1c0008c8:	0291                	addi	t0,t0,4
1c0008ca:	fe62ede3          	bltu	t0,t1,1c0008c4 <_start+0x44>
1c0008ce:	00002517          	auipc	a0,0x2
1c0008d2:	15650513          	addi	a0,a0,342 # 1c002a24 <__libc_fini_array>
1c0008d6:	116020ef          	jal	ra,1c0029ec <atexit>
1c0008da:	1ac020ef          	jal	ra,1c002a86 <__libc_init_array>
1c0008de:	4502                	lw	a0,0(sp)
1c0008e0:	004c                	addi	a1,sp,4
1c0008e2:	4601                	li	a2,0
1c0008e4:	7fb010ef          	jal	ra,1c0028de <main>
1c0008e8:	1100206f          	j	1c0029f8 <exit>

1c0008ec <_fini>:
1c0008ec:	8082                	ret
	...

1c000900 <freertos_risc_v_trap_handler>:
1c000900:	f8810113          	addi	sp,sp,-120
1c000904:	c206                	sw	ra,4(sp)
1c000906:	c416                	sw	t0,8(sp)
1c000908:	c61a                	sw	t1,12(sp)
1c00090a:	c81e                	sw	t2,16(sp)
1c00090c:	ca22                	sw	s0,20(sp)
1c00090e:	cc26                	sw	s1,24(sp)
1c000910:	ce2a                	sw	a0,28(sp)
1c000912:	d02e                	sw	a1,32(sp)
1c000914:	d232                	sw	a2,36(sp)
1c000916:	d436                	sw	a3,40(sp)
1c000918:	d63a                	sw	a4,44(sp)
1c00091a:	d83e                	sw	a5,48(sp)
1c00091c:	da42                	sw	a6,52(sp)
1c00091e:	dc46                	sw	a7,56(sp)
1c000920:	de4a                	sw	s2,60(sp)
1c000922:	c0ce                	sw	s3,64(sp)
1c000924:	c2d2                	sw	s4,68(sp)
1c000926:	c4d6                	sw	s5,72(sp)
1c000928:	c6da                	sw	s6,76(sp)
1c00092a:	c8de                	sw	s7,80(sp)
1c00092c:	cae2                	sw	s8,84(sp)
1c00092e:	cce6                	sw	s9,88(sp)
1c000930:	ceea                	sw	s10,92(sp)
1c000932:	d0ee                	sw	s11,96(sp)
1c000934:	d2f2                	sw	t3,100(sp)
1c000936:	d4f6                	sw	t4,104(sp)
1c000938:	d6fa                	sw	t5,108(sp)
1c00093a:	d8fe                	sw	t6,112(sp)
1c00093c:	300022f3          	csrr	t0,mstatus
1c000940:	da96                	sw	t0,116(sp)
1c000942:	1121                	addi	sp,sp,-24
1c000944:	800022f3          	csrr	t0,lpstart0
1c000948:	80102373          	csrr	t1,lpend0
1c00094c:	802023f3          	csrr	t2,lpcount0
1c000950:	80402e73          	csrr	t3,lpstart1
1c000954:	80502ef3          	csrr	t4,lpend1
1c000958:	80602f73          	csrr	t5,lpcount1
1c00095c:	c216                	sw	t0,4(sp)
1c00095e:	c41a                	sw	t1,8(sp)
1c000960:	c61e                	sw	t2,12(sp)
1c000962:	c872                	sw	t3,16(sp)
1c000964:	ca76                	sw	t4,20(sp)
1c000966:	cc7a                	sw	t5,24(sp)
1c000968:	d341a283          	lw	t0,-716(gp) # 1c008920 <pxCurrentTCB>
1c00096c:	0022a023          	sw	sp,0(t0)
1c000970:	34202573          	csrr	a0,mcause
1c000974:	341025f3          	csrr	a1,mepc

1c000978 <test_if_asynchronous>:
1c000978:	01f55613          	srli	a2,a0,0x1f
1c00097c:	ca09                	beqz	a2,1c00098e <handle_synchronous>
1c00097e:	c02e                	sw	a1,0(sp)

1c000980 <handle_asynchronous>:
1c000980:	00008117          	auipc	sp,0x8
1c000984:	ad812103          	lw	sp,-1320(sp) # 1c008458 <xISRStackTop>
1c000988:	529000ef          	jal	ra,1c0016b0 <vSystemIrqHandler>
1c00098c:	a80d                	j	1c0009be <processed_source>

1c00098e <handle_synchronous>:
1c00098e:	0591                	addi	a1,a1,4
1c000990:	c02e                	sw	a1,0(sp)

1c000992 <test_if_environment_call>:
1c000992:	42ad                	li	t0,11
1c000994:	7ff57513          	andi	a0,a0,2047
1c000998:	00551963          	bne	a0,t0,1c0009aa <is_exception>
1c00099c:	00008117          	auipc	sp,0x8
1c0009a0:	abc12103          	lw	sp,-1348(sp) # 1c008458 <xISRStackTop>
1c0009a4:	071000ef          	jal	ra,1c001214 <vTaskSwitchContext>
1c0009a8:	a819                	j	1c0009be <processed_source>

1c0009aa <is_exception>:
1c0009aa:	342022f3          	csrr	t0,mcause
1c0009ae:	34102373          	csrr	t1,mepc
1c0009b2:	300023f3          	csrr	t2,mstatus
1c0009b6:	bfd5                	j	1c0009aa <is_exception>

1c0009b8 <as_yet_unhandled>:
1c0009b8:	342022f3          	csrr	t0,mcause
1c0009bc:	bff5                	j	1c0009b8 <as_yet_unhandled>

1c0009be <processed_source>:
1c0009be:	d341a303          	lw	t1,-716(gp) # 1c008920 <pxCurrentTCB>
1c0009c2:	00032103          	lw	sp,0(t1)
1c0009c6:	4282                	lw	t0,0(sp)
1c0009c8:	34129073          	csrw	mepc,t0
1c0009cc:	4292                	lw	t0,4(sp)
1c0009ce:	4322                	lw	t1,8(sp)
1c0009d0:	43b2                	lw	t2,12(sp)
1c0009d2:	4e42                	lw	t3,16(sp)
1c0009d4:	4ed2                	lw	t4,20(sp)
1c0009d6:	4f62                	lw	t5,24(sp)
1c0009d8:	80029073          	csrw	lpstart0,t0
1c0009dc:	80131073          	csrw	lpend0,t1
1c0009e0:	80239073          	csrw	lpcount0,t2
1c0009e4:	804e1073          	csrw	lpstart1,t3
1c0009e8:	805e9073          	csrw	lpend1,t4
1c0009ec:	806f1073          	csrw	lpcount1,t5
1c0009f0:	0161                	addi	sp,sp,24
1c0009f2:	52d6                	lw	t0,116(sp)
1c0009f4:	30029073          	csrw	mstatus,t0
1c0009f8:	4092                	lw	ra,4(sp)
1c0009fa:	42a2                	lw	t0,8(sp)
1c0009fc:	4332                	lw	t1,12(sp)
1c0009fe:	43c2                	lw	t2,16(sp)
1c000a00:	4452                	lw	s0,20(sp)
1c000a02:	44e2                	lw	s1,24(sp)
1c000a04:	4572                	lw	a0,28(sp)
1c000a06:	5582                	lw	a1,32(sp)
1c000a08:	5612                	lw	a2,36(sp)
1c000a0a:	56a2                	lw	a3,40(sp)
1c000a0c:	5732                	lw	a4,44(sp)
1c000a0e:	57c2                	lw	a5,48(sp)
1c000a10:	5852                	lw	a6,52(sp)
1c000a12:	58e2                	lw	a7,56(sp)
1c000a14:	5972                	lw	s2,60(sp)
1c000a16:	4986                	lw	s3,64(sp)
1c000a18:	4a16                	lw	s4,68(sp)
1c000a1a:	4aa6                	lw	s5,72(sp)
1c000a1c:	4b36                	lw	s6,76(sp)
1c000a1e:	4bc6                	lw	s7,80(sp)
1c000a20:	4c56                	lw	s8,84(sp)
1c000a22:	4ce6                	lw	s9,88(sp)
1c000a24:	4d76                	lw	s10,92(sp)
1c000a26:	5d86                	lw	s11,96(sp)
1c000a28:	5e16                	lw	t3,100(sp)
1c000a2a:	5ea6                	lw	t4,104(sp)
1c000a2c:	5f36                	lw	t5,108(sp)
1c000a2e:	5fc6                	lw	t6,112(sp)
1c000a30:	07810113          	addi	sp,sp,120
1c000a34:	30200073          	mret
1c000a38:	00000013          	nop
1c000a3c:	00000013          	nop
1c000a40:	00000013          	nop
1c000a44:	00000013          	nop
1c000a48:	00000013          	nop
1c000a4c:	00000013          	nop
1c000a50:	00000013          	nop
1c000a54:	00000013          	nop
1c000a58:	00000013          	nop
1c000a5c:	00000013          	nop
1c000a60:	00000013          	nop
1c000a64:	00000013          	nop
1c000a68:	00000013          	nop
1c000a6c:	00000013          	nop
1c000a70:	00000013          	nop
1c000a74:	00000013          	nop
1c000a78:	00000013          	nop
1c000a7c:	00000013          	nop
1c000a80:	00000013          	nop
1c000a84:	00000013          	nop
1c000a88:	00000013          	nop
1c000a8c:	00000013          	nop
1c000a90:	00000013          	nop
1c000a94:	00000013          	nop
1c000a98:	00000013          	nop
1c000a9c:	00000013          	nop
1c000aa0:	00000013          	nop
1c000aa4:	00000013          	nop
1c000aa8:	00000013          	nop
1c000aac:	00000013          	nop
1c000ab0:	00000013          	nop
1c000ab4:	00000013          	nop
1c000ab8:	00000013          	nop
1c000abc:	00000013          	nop
1c000ac0:	00000013          	nop
1c000ac4:	00000013          	nop
1c000ac8:	00000013          	nop
1c000acc:	00000013          	nop
1c000ad0:	00000013          	nop
1c000ad4:	00000013          	nop
1c000ad8:	00000013          	nop
1c000adc:	00000013          	nop
1c000ae0:	00000013          	nop
1c000ae4:	00000013          	nop
1c000ae8:	00000013          	nop
1c000aec:	00000013          	nop
1c000af0:	00000013          	nop
1c000af4:	00000013          	nop
1c000af8:	00000013          	nop
1c000afc:	00000013          	nop

1c000b00 <freertos_risc_v_ctxt_handler>:
1c000b00:	f8810113          	addi	sp,sp,-120
1c000b04:	c206                	sw	ra,4(sp)
1c000b06:	c416                	sw	t0,8(sp)
1c000b08:	c61a                	sw	t1,12(sp)
1c000b0a:	c81e                	sw	t2,16(sp)
1c000b0c:	ca22                	sw	s0,20(sp)
1c000b0e:	cc26                	sw	s1,24(sp)
1c000b10:	ce2a                	sw	a0,28(sp)
1c000b12:	d02e                	sw	a1,32(sp)
1c000b14:	d232                	sw	a2,36(sp)
1c000b16:	d436                	sw	a3,40(sp)
1c000b18:	d63a                	sw	a4,44(sp)
1c000b1a:	d83e                	sw	a5,48(sp)
1c000b1c:	da42                	sw	a6,52(sp)
1c000b1e:	dc46                	sw	a7,56(sp)
1c000b20:	de4a                	sw	s2,60(sp)
1c000b22:	c0ce                	sw	s3,64(sp)
1c000b24:	c2d2                	sw	s4,68(sp)
1c000b26:	c4d6                	sw	s5,72(sp)
1c000b28:	c6da                	sw	s6,76(sp)
1c000b2a:	c8de                	sw	s7,80(sp)
1c000b2c:	cae2                	sw	s8,84(sp)
1c000b2e:	cce6                	sw	s9,88(sp)
1c000b30:	ceea                	sw	s10,92(sp)
1c000b32:	d0ee                	sw	s11,96(sp)
1c000b34:	d2f2                	sw	t3,100(sp)
1c000b36:	d4f6                	sw	t4,104(sp)
1c000b38:	d6fa                	sw	t5,108(sp)
1c000b3a:	d8fe                	sw	t6,112(sp)
1c000b3c:	300022f3          	csrr	t0,mstatus
1c000b40:	da96                	sw	t0,116(sp)
1c000b42:	1121                	addi	sp,sp,-24
1c000b44:	800022f3          	csrr	t0,lpstart0
1c000b48:	80102373          	csrr	t1,lpend0
1c000b4c:	802023f3          	csrr	t2,lpcount0
1c000b50:	80402e73          	csrr	t3,lpstart1
1c000b54:	80502ef3          	csrr	t4,lpend1
1c000b58:	80602f73          	csrr	t5,lpcount1
1c000b5c:	c216                	sw	t0,4(sp)
1c000b5e:	c41a                	sw	t1,8(sp)
1c000b60:	c61e                	sw	t2,12(sp)
1c000b62:	c872                	sw	t3,16(sp)
1c000b64:	ca76                	sw	t4,20(sp)
1c000b66:	cc7a                	sw	t5,24(sp)
1c000b68:	d341a283          	lw	t0,-716(gp) # 1c008920 <pxCurrentTCB>
1c000b6c:	0022a023          	sw	sp,0(t0)
1c000b70:	34202573          	csrr	a0,mcause
1c000b74:	341025f3          	csrr	a1,mepc
1c000b78:	c02e                	sw	a1,0(sp)
1c000b7a:	00008117          	auipc	sp,0x8
1c000b7e:	8de12103          	lw	sp,-1826(sp) # 1c008458 <xISRStackTop>
1c000b82:	564000ef          	jal	ra,1c0010e6 <xTaskIncrementTick>
1c000b86:	e2050ce3          	beqz	a0,1c0009be <processed_source>
1c000b8a:	68a000ef          	jal	ra,1c001214 <vTaskSwitchContext>
1c000b8e:	d341a303          	lw	t1,-716(gp) # 1c008920 <pxCurrentTCB>
1c000b92:	00032103          	lw	sp,0(t1)
1c000b96:	4282                	lw	t0,0(sp)
1c000b98:	34129073          	csrw	mepc,t0
1c000b9c:	4292                	lw	t0,4(sp)
1c000b9e:	4322                	lw	t1,8(sp)
1c000ba0:	43b2                	lw	t2,12(sp)
1c000ba2:	4e42                	lw	t3,16(sp)
1c000ba4:	4ed2                	lw	t4,20(sp)
1c000ba6:	4f62                	lw	t5,24(sp)
1c000ba8:	80029073          	csrw	lpstart0,t0
1c000bac:	80131073          	csrw	lpend0,t1
1c000bb0:	80239073          	csrw	lpcount0,t2
1c000bb4:	804e1073          	csrw	lpstart1,t3
1c000bb8:	805e9073          	csrw	lpend1,t4
1c000bbc:	806f1073          	csrw	lpcount1,t5
1c000bc0:	0161                	addi	sp,sp,24
1c000bc2:	52d6                	lw	t0,116(sp)
1c000bc4:	30029073          	csrw	mstatus,t0
1c000bc8:	4092                	lw	ra,4(sp)
1c000bca:	42a2                	lw	t0,8(sp)
1c000bcc:	4332                	lw	t1,12(sp)
1c000bce:	43c2                	lw	t2,16(sp)
1c000bd0:	4452                	lw	s0,20(sp)
1c000bd2:	44e2                	lw	s1,24(sp)
1c000bd4:	4572                	lw	a0,28(sp)
1c000bd6:	5582                	lw	a1,32(sp)
1c000bd8:	5612                	lw	a2,36(sp)
1c000bda:	56a2                	lw	a3,40(sp)
1c000bdc:	5732                	lw	a4,44(sp)
1c000bde:	57c2                	lw	a5,48(sp)
1c000be0:	5852                	lw	a6,52(sp)
1c000be2:	58e2                	lw	a7,56(sp)
1c000be4:	5972                	lw	s2,60(sp)
1c000be6:	4986                	lw	s3,64(sp)
1c000be8:	4a16                	lw	s4,68(sp)
1c000bea:	4aa6                	lw	s5,72(sp)
1c000bec:	4b36                	lw	s6,76(sp)
1c000bee:	4bc6                	lw	s7,80(sp)
1c000bf0:	4c56                	lw	s8,84(sp)
1c000bf2:	4ce6                	lw	s9,88(sp)
1c000bf4:	4d76                	lw	s10,92(sp)
1c000bf6:	5d86                	lw	s11,96(sp)
1c000bf8:	5e16                	lw	t3,100(sp)
1c000bfa:	5ea6                	lw	t4,104(sp)
1c000bfc:	5f36                	lw	t5,108(sp)
1c000bfe:	5fc6                	lw	t6,112(sp)
1c000c00:	07810113          	addi	sp,sp,120
1c000c04:	30200073          	mret
1c000c08:	00000013          	nop
1c000c0c:	00000013          	nop
1c000c10:	00000013          	nop
1c000c14:	00000013          	nop
1c000c18:	00000013          	nop
1c000c1c:	00000013          	nop
1c000c20:	00000013          	nop
1c000c24:	00000013          	nop
1c000c28:	00000013          	nop
1c000c2c:	00000013          	nop
1c000c30:	00000013          	nop
1c000c34:	00000013          	nop
1c000c38:	00000013          	nop
1c000c3c:	00000013          	nop
1c000c40:	00000013          	nop
1c000c44:	00000013          	nop
1c000c48:	00000013          	nop
1c000c4c:	00000013          	nop
1c000c50:	00000013          	nop
1c000c54:	00000013          	nop
1c000c58:	00000013          	nop
1c000c5c:	00000013          	nop
1c000c60:	00000013          	nop
1c000c64:	00000013          	nop
1c000c68:	00000013          	nop
1c000c6c:	00000013          	nop
1c000c70:	00000013          	nop
1c000c74:	00000013          	nop
1c000c78:	00000013          	nop
1c000c7c:	00000013          	nop
1c000c80:	00000013          	nop
1c000c84:	00000013          	nop
1c000c88:	00000013          	nop
1c000c8c:	00000013          	nop
1c000c90:	00000013          	nop
1c000c94:	00000013          	nop
1c000c98:	00000013          	nop
1c000c9c:	00000013          	nop
1c000ca0:	00000013          	nop
1c000ca4:	00000013          	nop
1c000ca8:	00000013          	nop
1c000cac:	00000013          	nop
1c000cb0:	00000013          	nop
1c000cb4:	00000013          	nop
1c000cb8:	00000013          	nop
1c000cbc:	00000013          	nop
1c000cc0:	00000013          	nop
1c000cc4:	00000013          	nop
1c000cc8:	00000013          	nop
1c000ccc:	00000013          	nop
1c000cd0:	00000013          	nop
1c000cd4:	00000013          	nop
1c000cd8:	00000013          	nop
1c000cdc:	00000013          	nop
1c000ce0:	00000013          	nop
1c000ce4:	00000013          	nop
1c000ce8:	00000013          	nop
1c000cec:	00000013          	nop
1c000cf0:	00000013          	nop
1c000cf4:	00000013          	nop
1c000cf8:	00000013          	nop
1c000cfc:	00000013          	nop

1c000d00 <xPortStartFirstTask>:
1c000d00:	d341a103          	lw	sp,-716(gp) # 1c008920 <pxCurrentTCB>
1c000d04:	4102                	lw	sp,0(sp)
1c000d06:	4082                	lw	ra,0(sp)
1c000d08:	4292                	lw	t0,4(sp)
1c000d0a:	4322                	lw	t1,8(sp)
1c000d0c:	43b2                	lw	t2,12(sp)
1c000d0e:	4e42                	lw	t3,16(sp)
1c000d10:	4ed2                	lw	t4,20(sp)
1c000d12:	4f62                	lw	t5,24(sp)
1c000d14:	80029073          	csrw	lpstart0,t0
1c000d18:	80131073          	csrw	lpend0,t1
1c000d1c:	80239073          	csrw	lpcount0,t2
1c000d20:	804e1073          	csrw	lpstart1,t3
1c000d24:	805e9073          	csrw	lpend1,t4
1c000d28:	806f1073          	csrw	lpcount1,t5
1c000d2c:	0161                	addi	sp,sp,24
1c000d2e:	4332                	lw	t1,12(sp)
1c000d30:	43c2                	lw	t2,16(sp)
1c000d32:	4452                	lw	s0,20(sp)
1c000d34:	44e2                	lw	s1,24(sp)
1c000d36:	4572                	lw	a0,28(sp)
1c000d38:	5582                	lw	a1,32(sp)
1c000d3a:	5612                	lw	a2,36(sp)
1c000d3c:	56a2                	lw	a3,40(sp)
1c000d3e:	5732                	lw	a4,44(sp)
1c000d40:	57c2                	lw	a5,48(sp)
1c000d42:	5852                	lw	a6,52(sp)
1c000d44:	58e2                	lw	a7,56(sp)
1c000d46:	5972                	lw	s2,60(sp)
1c000d48:	4986                	lw	s3,64(sp)
1c000d4a:	4a16                	lw	s4,68(sp)
1c000d4c:	4aa6                	lw	s5,72(sp)
1c000d4e:	4b36                	lw	s6,76(sp)
1c000d50:	4bc6                	lw	s7,80(sp)
1c000d52:	4c56                	lw	s8,84(sp)
1c000d54:	4ce6                	lw	s9,88(sp)
1c000d56:	4d76                	lw	s10,92(sp)
1c000d58:	5d86                	lw	s11,96(sp)
1c000d5a:	5e16                	lw	t3,100(sp)
1c000d5c:	5ea6                	lw	t4,104(sp)
1c000d5e:	5f36                	lw	t5,108(sp)
1c000d60:	5fc6                	lw	t6,112(sp)
1c000d62:	52d6                	lw	t0,116(sp)
1c000d64:	02a1                	addi	t0,t0,8
1c000d66:	30029073          	csrw	mstatus,t0
1c000d6a:	42a2                	lw	t0,8(sp)
1c000d6c:	07810113          	addi	sp,sp,120
1c000d70:	8082                	ret
1c000d72:	00000013          	nop
1c000d76:	00000013          	nop
1c000d7a:	00000013          	nop
1c000d7e:	00000013          	nop
1c000d82:	00000013          	nop
1c000d86:	00000013          	nop
1c000d8a:	00000013          	nop
1c000d8e:	00000013          	nop
1c000d92:	00000013          	nop
1c000d96:	00000013          	nop
1c000d9a:	00000013          	nop
1c000d9e:	00000013          	nop
1c000da2:	00000013          	nop
1c000da6:	00000013          	nop
1c000daa:	00000013          	nop
1c000dae:	00000013          	nop
1c000db2:	00000013          	nop
1c000db6:	00000013          	nop
1c000dba:	00000013          	nop
1c000dbe:	00000013          	nop
1c000dc2:	00000013          	nop
1c000dc6:	00000013          	nop
1c000dca:	00000013          	nop
1c000dce:	00000013          	nop
1c000dd2:	00000013          	nop
1c000dd6:	00000013          	nop
1c000dda:	00000013          	nop
1c000dde:	00000013          	nop
1c000de2:	00000013          	nop
1c000de6:	00000013          	nop
1c000dea:	00000013          	nop
1c000dee:	00000013          	nop
1c000df2:	00000013          	nop
1c000df6:	00000013          	nop
1c000dfa:	00000013          	nop
1c000dfe:	0001                	nop

1c000e00 <pxPortInitialiseStack>:
1c000e00:	300022f3          	csrr	t0,mstatus
1c000e04:	ff72f293          	andi	t0,t0,-9
1c000e08:	18800313          	li	t1,392
1c000e0c:	0312                	slli	t1,t1,0x4
1c000e0e:	0062e2b3          	or	t0,t0,t1
1c000e12:	1571                	addi	a0,a0,-4
1c000e14:	00552023          	sw	t0,0(a0)
1c000e18:	fa850513          	addi	a0,a0,-88
1c000e1c:	c110                	sw	a2,0(a0)
1c000e1e:	1521                	addi	a0,a0,-24
1c000e20:	00052023          	sw	zero,0(a0)
1c000e24:	00600293          	li	t0,6

1c000e28 <chip_specific_stack_frame>:
1c000e28:	00028763          	beqz	t0,1c000e36 <chip_specific_stack_frame+0xe>
1c000e2c:	1571                	addi	a0,a0,-4
1c000e2e:	00052023          	sw	zero,0(a0)
1c000e32:	12fd                	addi	t0,t0,-1
1c000e34:	bfd5                	j	1c000e28 <chip_specific_stack_frame>
1c000e36:	1571                	addi	a0,a0,-4
1c000e38:	c10c                	sw	a1,0(a0)
1c000e3a:	8082                	ret
1c000e3c:	0000                	unimp
1c000e3e:	0000                	unimp
	...

1c000e42 <cluster_exec_loop>:
1c000e42:	00b06d33          	or	s10,zero,a1
1c000e46:	000702b7          	lui	t0,0x70
1c000e4a:	4301                	li	t1,0
1c000e4c:	4e05                	li	t3,1
1c000e4e:	00204937          	lui	s2,0x204
1c000e52:	20090913          	addi	s2,s2,512 # 204200 <__heap_l2_shared_size+0x194220>
1c000e56:	02000393          	li	t2,32
1c000e5a:	00204437          	lui	s0,0x204
1c000e5e:	03c38e33          	mul	t3,t2,t3
1c000e62:	002044b7          	lui	s1,0x204
1c000e66:	08048493          	addi	s1,s1,128 # 204080 <__heap_l2_shared_size+0x1940a0>
1c000e6a:	01c90bb3          	add	s7,s2,t3
1c000e6e:	00542423          	sw	t0,8(s0) # 204008 <__heap_l2_shared_size+0x194028>
1c000e72:	0a659463          	bne	a1,t1,1c000f1a <cl_slave_loop>
1c000e76:	20000293          	li	t0,512
1c000e7a:	00000c17          	auipc	s8,0x0
1c000e7e:	0dac0c13          	addi	s8,s8,218 # 1c000f54 <cl_slave_stack_setup>
1c000e82:	00542a23          	sw	t0,20(s0)
1c000e86:	4989                	li	s3,2
1c000e88:	d6418a13          	addi	s4,gp,-668 # 1c008950 <__per_cluster_data>
1c000e8c:	001c6c13          	ori	s8,s8,1
1c000e90:	30045073          	csrwi	mstatus,8

1c000e94 <cl_master_cluster_ready>:
1c000e94:	000a2a83          	lw	s5,0(s4)
1c000e98:	060a8a63          	beqz	s5,1c000f0c <cl_master_sleep>

1c000e9c <cl_master_loop>:
1c000e9c:	00000097          	auipc	ra,0x0
1c000ea0:	06608093          	addi	ra,ra,102 # 1c000f02 <cl_master_cluster_task_end>
1c000ea4:	000aab03          	lw	s6,0(s5)
1c000ea8:	060b0263          	beqz	s6,1c000f0c <cl_master_sleep>
1c000eac:	000b2283          	lw	t0,0(s6)
1c000eb0:	004b2503          	lw	a0,4(s6)
1c000eb4:	008b2303          	lw	t1,8(s6)
1c000eb8:	00cb2383          	lw	t2,12(s6)
1c000ebc:	010b2e03          	lw	t3,16(s6)
1c000ec0:	014b2e83          	lw	t4,20(s6)
1c000ec4:	00730133          	add	sp,t1,t2
1c000ec8:	024b2f03          	lw	t5,36(s6)
1c000ecc:	00016333          	or	t1,sp,zero

1c000ed0 <cl_master_slave_barrier_sync_config>:
1c000ed0:	001f6613          	ori	a2,t5,1
1c000ed4:	000f0663          	beqz	t5,1c000ee0 <cl_master_master_slave_barrier_sync_config>
1c000ed8:	01e92023          	sw	t5,0(s2)
1c000edc:	01e92623          	sw	t5,12(s2)

1c000ee0 <cl_master_master_slave_barrier_sync_config>:
1c000ee0:	00cba023          	sw	a2,0(s7)
1c000ee4:	00cba623          	sw	a2,12(s7)

1c000ee8 <cl_master_dispatch_stack>:
1c000ee8:	001f4f93          	xori	t6,t5,1
1c000eec:	000e8a63          	beqz	t4,1c000f00 <cl_master_core_only>
1c000ef0:	01f4a223          	sw	t6,4(s1)
1c000ef4:	0184a023          	sw	s8,0(s1)
1c000ef8:	0064a023          	sw	t1,0(s1)
1c000efc:	01c4a023          	sw	t3,0(s1)

1c000f00 <cl_master_core_only>:
1c000f00:	8282                	jr	t0

1c000f02 <cl_master_cluster_task_end>:
1c000f02:	01506533          	or	a0,zero,s5
1c000f06:	06d000ef          	jal	ra,1c001772 <cl_task_finish>
1c000f0a:	bf49                	j	1c000e9c <cl_master_loop>

1c000f0c <cl_master_sleep>:
1c000f0c:	01342423          	sw	s3,8(s0)
1c000f10:	03c46283          	p.elw	t0,60(s0)
1c000f14:	01342223          	sw	s3,4(s0)
1c000f18:	b751                	j	1c000e9c <cl_master_loop>

1c000f1a <cl_slave_loop>:
1c000f1a:	00000a17          	auipc	s4,0x0
1c000f1e:	016a0a13          	addi	s4,s4,22 # 1c000f30 <cl_slave_barrier_trig_wait>
1c000f22:	00000a97          	auipc	s5,0x0
1c000f26:	012a8a93          	addi	s5,s5,18 # 1c000f34 <cl_slave_wait_for_dispatch>
1c000f2a:	014060b3          	or	ra,zero,s4
1c000f2e:	a019                	j	1c000f34 <cl_slave_wait_for_dispatch>

1c000f30 <cl_slave_barrier_trig_wait>:
1c000f30:	01cbe283          	p.elw	t0,28(s7)

1c000f34 <cl_slave_wait_for_dispatch>:
1c000f34:	0004e283          	p.elw	t0,0(s1)
1c000f38:	0004e503          	p.elw	a0,0(s1)
1c000f3c:	0012f313          	andi	t1,t0,1
1c000f40:	c002b2b3          	p.bclr	t0,t0,0,0
1c000f44:	00031563          	bnez	t1,1c000f4e <cl_slave_entry_no_barrier>

1c000f48 <cl_slave_entry_with_barrier>:
1c000f48:	014060b3          	or	ra,zero,s4
1c000f4c:	8282                	jr	t0

1c000f4e <cl_slave_entry_no_barrier>:
1c000f4e:	015060b3          	or	ra,zero,s5
1c000f52:	8282                	jr	t0

1c000f54 <cl_slave_stack_setup>:
1c000f54:	0004e283          	p.elw	t0,0(s1)
1c000f58:	03a282b3          	mul	t0,t0,s10
1c000f5c:	00550133          	add	sp,a0,t0
1c000f60:	8082                	ret

1c000f62 <fc_soc_event_handler>:
1c000f62:	1a109537          	lui	a0,0x1a109
1c000f66:	4108                	lw	a0,0(a0)
1c000f68:	ee853533          	p.bclr	a0,a0,23,8
1c000f6c:	00251713          	slli	a4,a0,0x2
1c000f70:	1c0087b7          	lui	a5,0x1c008
1c000f74:	5f478793          	addi	a5,a5,1524 # 1c0085f4 <fc_event_handlers>
1c000f78:	97ba                	add	a5,a5,a4
1c000f7a:	439c                	lw	a5,0(a5)
1c000f7c:	cf89                	beqz	a5,1c000f96 <fc_soc_event_handler+0x34>
1c000f7e:	1141                	addi	sp,sp,-16
1c000f80:	c606                	sw	ra,12(sp)
1c000f82:	1c0087b7          	lui	a5,0x1c008
1c000f86:	5f478793          	addi	a5,a5,1524 # 1c0085f4 <fc_event_handlers>
1c000f8a:	97ba                	add	a5,a5,a4
1c000f8c:	439c                	lw	a5,0(a5)
1c000f8e:	9782                	jalr	a5
1c000f90:	40b2                	lw	ra,12(sp)
1c000f92:	0141                	addi	sp,sp,16
1c000f94:	8082                	ret
1c000f96:	8082                	ret

1c000f98 <memcpy>:
1c000f98:	832a                	mv	t1,a0
1c000f9a:	ca09                	beqz	a2,1c000fac <memcpy+0x14>
1c000f9c:	00058383          	lb	t2,0(a1)
1c000fa0:	00730023          	sb	t2,0(t1)
1c000fa4:	167d                	addi	a2,a2,-1
1c000fa6:	0305                	addi	t1,t1,1
1c000fa8:	0585                	addi	a1,a1,1
1c000faa:	fa6d                	bnez	a2,1c000f9c <memcpy+0x4>
1c000fac:	8082                	ret

1c000fae <memset>:
1c000fae:	832a                	mv	t1,a0
1c000fb0:	c611                	beqz	a2,1c000fbc <memset+0xe>
1c000fb2:	00b30023          	sb	a1,0(t1)
1c000fb6:	167d                	addi	a2,a2,-1
1c000fb8:	0305                	addi	t1,t1,1
1c000fba:	fe65                	bnez	a2,1c000fb2 <memset+0x4>
1c000fbc:	8082                	ret

1c000fbe <vListInsertEnd>:
1c000fbe:	415c                	lw	a5,4(a0)
1c000fc0:	c1dc                	sw	a5,4(a1)
1c000fc2:	4798                	lw	a4,8(a5)
1c000fc4:	c598                	sw	a4,8(a1)
1c000fc6:	c34c                	sw	a1,4(a4)
1c000fc8:	c78c                	sw	a1,8(a5)
1c000fca:	c988                	sw	a0,16(a1)
1c000fcc:	411c                	lw	a5,0(a0)
1c000fce:	0785                	addi	a5,a5,1
1c000fd0:	c11c                	sw	a5,0(a0)
1c000fd2:	8082                	ret

1c000fd4 <vListInsert>:
1c000fd4:	4190                	lw	a2,0(a1)
1c000fd6:	03f62363          	p.beqimm	a2,-1,1c000ffc <vListInsert+0x28>
1c000fda:	00850793          	addi	a5,a0,8 # 1a109008 <__heap_l1_cluster_start+0xa108fe8>
1c000fde:	86be                	mv	a3,a5
1c000fe0:	43dc                	lw	a5,4(a5)
1c000fe2:	4398                	lw	a4,0(a5)
1c000fe4:	fee67de3          	bgeu	a2,a4,1c000fde <vListInsert+0xa>
1c000fe8:	42dc                	lw	a5,4(a3)
1c000fea:	c1dc                	sw	a5,4(a1)
1c000fec:	c78c                	sw	a1,8(a5)
1c000fee:	c594                	sw	a3,8(a1)
1c000ff0:	c2cc                	sw	a1,4(a3)
1c000ff2:	c988                	sw	a0,16(a1)
1c000ff4:	411c                	lw	a5,0(a0)
1c000ff6:	0785                	addi	a5,a5,1
1c000ff8:	c11c                	sw	a5,0(a0)
1c000ffa:	8082                	ret
1c000ffc:	4914                	lw	a3,16(a0)
1c000ffe:	b7ed                	j	1c000fe8 <vListInsert+0x14>

1c001000 <uxListRemove>:
1c001000:	491c                	lw	a5,16(a0)
1c001002:	4154                	lw	a3,4(a0)
1c001004:	4518                	lw	a4,8(a0)
1c001006:	c698                	sw	a4,8(a3)
1c001008:	4154                	lw	a3,4(a0)
1c00100a:	c354                	sw	a3,4(a4)
1c00100c:	43d8                	lw	a4,4(a5)
1c00100e:	00a70963          	beq	a4,a0,1c001020 <uxListRemove+0x20>
1c001012:	00052823          	sw	zero,16(a0)
1c001016:	4398                	lw	a4,0(a5)
1c001018:	177d                	addi	a4,a4,-1
1c00101a:	c398                	sw	a4,0(a5)
1c00101c:	4388                	lw	a0,0(a5)
1c00101e:	8082                	ret
1c001020:	4518                	lw	a4,8(a0)
1c001022:	c3d8                	sw	a4,4(a5)
1c001024:	b7fd                	j	1c001012 <uxListRemove+0x12>

1c001026 <prvResetNextTaskUnblockTime>:
1c001026:	d381a783          	lw	a5,-712(gp) # 1c008924 <pxDelayedTaskList>
1c00102a:	439c                	lw	a5,0(a5)
1c00102c:	e789                	bnez	a5,1c001036 <prvResetNextTaskUnblockTime+0x10>
1c00102e:	577d                	li	a4,-1
1c001030:	d4e1a623          	sw	a4,-692(gp) # 1c008938 <xNextTaskUnblockTime>
1c001034:	8082                	ret
1c001036:	d381a783          	lw	a5,-712(gp) # 1c008924 <pxDelayedTaskList>
1c00103a:	47dc                	lw	a5,12(a5)
1c00103c:	47dc                	lw	a5,12(a5)
1c00103e:	43d8                	lw	a4,4(a5)
1c001040:	d4e1a623          	sw	a4,-692(gp) # 1c008938 <xNextTaskUnblockTime>
1c001044:	8082                	ret

1c001046 <prvAddCurrentTaskToDelayedList>:
1c001046:	1141                	addi	sp,sp,-16
1c001048:	c606                	sw	ra,12(sp)
1c00104a:	c422                	sw	s0,8(sp)
1c00104c:	c226                	sw	s1,4(sp)
1c00104e:	c04a                	sw	s2,0(sp)
1c001050:	842a                	mv	s0,a0
1c001052:	84ae                	mv	s1,a1
1c001054:	d5c1a903          	lw	s2,-676(gp) # 1c008948 <xTickCount>
1c001058:	d3418793          	addi	a5,gp,-716 # 1c008920 <pxCurrentTCB>
1c00105c:	4398                	lw	a4,0(a5)
1c00105e:	480702a3          	sb	zero,1157(a4)
1c001062:	4388                	lw	a0,0(a5)
1c001064:	0511                	addi	a0,a0,4
1c001066:	3f69                	jal	1c001000 <uxListRemove>
1c001068:	ed11                	bnez	a0,1c001084 <prvAddCurrentTaskToDelayedList+0x3e>
1c00106a:	d341a783          	lw	a5,-716(gp) # 1c008920 <pxCurrentTCB>
1c00106e:	57d8                	lw	a4,44(a5)
1c001070:	4785                	li	a5,1
1c001072:	00e797b3          	sll	a5,a5,a4
1c001076:	fff7c793          	not	a5,a5
1c00107a:	d4818713          	addi	a4,gp,-696 # 1c008934 <uxTopReadyPriority>
1c00107e:	4314                	lw	a3,0(a4)
1c001080:	8ff5                	and	a5,a5,a3
1c001082:	c31c                	sw	a5,0(a4)
1c001084:	03f42463          	p.beqimm	s0,-1,1c0010ac <prvAddCurrentTaskToDelayedList+0x66>
1c001088:	944a                	add	s0,s0,s2
1c00108a:	d341a783          	lw	a5,-716(gp) # 1c008920 <pxCurrentTCB>
1c00108e:	c3c0                	sw	s0,4(a5)
1c001090:	03247863          	bgeu	s0,s2,1c0010c0 <prvAddCurrentTaskToDelayedList+0x7a>
1c001094:	d3c1a503          	lw	a0,-708(gp) # 1c008928 <pxOverflowDelayedTaskList>
1c001098:	d341a583          	lw	a1,-716(gp) # 1c008920 <pxCurrentTCB>
1c00109c:	0591                	addi	a1,a1,4
1c00109e:	3f1d                	jal	1c000fd4 <vListInsert>
1c0010a0:	40b2                	lw	ra,12(sp)
1c0010a2:	4422                	lw	s0,8(sp)
1c0010a4:	4492                	lw	s1,4(sp)
1c0010a6:	4902                	lw	s2,0(sp)
1c0010a8:	0141                	addi	sp,sp,16
1c0010aa:	8082                	ret
1c0010ac:	dcf1                	beqz	s1,1c001088 <prvAddCurrentTaskToDelayedList+0x42>
1c0010ae:	d341a583          	lw	a1,-716(gp) # 1c008920 <pxCurrentTCB>
1c0010b2:	0591                	addi	a1,a1,4
1c0010b4:	1c008537          	lui	a0,0x1c008
1c0010b8:	4e050513          	addi	a0,a0,1248 # 1c0084e0 <xSuspendedTaskList>
1c0010bc:	3709                	jal	1c000fbe <vListInsertEnd>
1c0010be:	b7cd                	j	1c0010a0 <prvAddCurrentTaskToDelayedList+0x5a>
1c0010c0:	d381a503          	lw	a0,-712(gp) # 1c008924 <pxDelayedTaskList>
1c0010c4:	d341a583          	lw	a1,-716(gp) # 1c008920 <pxCurrentTCB>
1c0010c8:	0591                	addi	a1,a1,4
1c0010ca:	3729                	jal	1c000fd4 <vListInsert>
1c0010cc:	d4c1a783          	lw	a5,-692(gp) # 1c008938 <xNextTaskUnblockTime>
1c0010d0:	fcf478e3          	bgeu	s0,a5,1c0010a0 <prvAddCurrentTaskToDelayedList+0x5a>
1c0010d4:	d481a623          	sw	s0,-692(gp) # 1c008938 <xNextTaskUnblockTime>
1c0010d8:	b7e1                	j	1c0010a0 <prvAddCurrentTaskToDelayedList+0x5a>

1c0010da <vTaskSuspendAll>:
1c0010da:	d4418793          	addi	a5,gp,-700 # 1c008930 <uxSchedulerSuspended>
1c0010de:	4398                	lw	a4,0(a5)
1c0010e0:	0705                	addi	a4,a4,1
1c0010e2:	c398                	sw	a4,0(a5)
1c0010e4:	8082                	ret

1c0010e6 <xTaskIncrementTick>:
1c0010e6:	1101                	addi	sp,sp,-32
1c0010e8:	ce06                	sw	ra,28(sp)
1c0010ea:	cc22                	sw	s0,24(sp)
1c0010ec:	ca26                	sw	s1,20(sp)
1c0010ee:	c84a                	sw	s2,16(sp)
1c0010f0:	c64e                	sw	s3,12(sp)
1c0010f2:	d441a783          	lw	a5,-700(gp) # 1c008930 <uxSchedulerSuspended>
1c0010f6:	10079163          	bnez	a5,1c0011f8 <xTaskIncrementTick+0x112>
1c0010fa:	d5c18793          	addi	a5,gp,-676 # 1c008948 <xTickCount>
1c0010fe:	4384                	lw	s1,0(a5)
1c001100:	0485                	addi	s1,s1,1
1c001102:	c384                	sw	s1,0(a5)
1c001104:	e09d                	bnez	s1,1c00112a <xTaskIncrementTick+0x44>
1c001106:	d381a783          	lw	a5,-712(gp) # 1c008924 <pxDelayedTaskList>
1c00110a:	439c                	lw	a5,0(a5)
1c00110c:	ebb9                	bnez	a5,1c001162 <xTaskIncrementTick+0x7c>
1c00110e:	d3818713          	addi	a4,gp,-712 # 1c008924 <pxDelayedTaskList>
1c001112:	4314                	lw	a3,0(a4)
1c001114:	d3c18793          	addi	a5,gp,-708 # 1c008928 <pxOverflowDelayedTaskList>
1c001118:	4390                	lw	a2,0(a5)
1c00111a:	c310                	sw	a2,0(a4)
1c00111c:	c394                	sw	a3,0(a5)
1c00111e:	d5018793          	addi	a5,gp,-688 # 1c00893c <xNumOfOverflows>
1c001122:	4398                	lw	a4,0(a5)
1c001124:	0705                	addi	a4,a4,1
1c001126:	c398                	sw	a4,0(a5)
1c001128:	3dfd                	jal	1c001026 <prvResetNextTaskUnblockTime>
1c00112a:	d4c1a783          	lw	a5,-692(gp) # 1c008938 <xNextTaskUnblockTime>
1c00112e:	0af4fc63          	bgeu	s1,a5,1c0011e6 <xTaskIncrementTick+0x100>
1c001132:	4901                	li	s2,0
1c001134:	d341a783          	lw	a5,-716(gp) # 1c008920 <pxCurrentTCB>
1c001138:	57dc                	lw	a5,44(a5)
1c00113a:	00279713          	slli	a4,a5,0x2
1c00113e:	973e                	add	a4,a4,a5
1c001140:	00271693          	slli	a3,a4,0x2
1c001144:	1c0087b7          	lui	a5,0x1c008
1c001148:	46878793          	addi	a5,a5,1128 # 1c008468 <pxReadyTasksLists>
1c00114c:	97b6                	add	a5,a5,a3
1c00114e:	4398                	lw	a4,0(a5)
1c001150:	4785                	li	a5,1
1c001152:	00e7f363          	bgeu	a5,a4,1c001158 <xTaskIncrementTick+0x72>
1c001156:	4905                	li	s2,1
1c001158:	d601a783          	lw	a5,-672(gp) # 1c00894c <xYieldPending>
1c00115c:	c7c5                	beqz	a5,1c001204 <xTaskIncrementTick+0x11e>
1c00115e:	4905                	li	s2,1
1c001160:	a055                	j	1c001204 <xTaskIncrementTick+0x11e>
1c001162:	1c0086b7          	lui	a3,0x1c008
1c001166:	04468693          	addi	a3,a3,68 # 1c008044 <__l2_priv0_end+0x416c>
1c00116a:	1c008637          	lui	a2,0x1c008
1c00116e:	15460613          	addi	a2,a2,340 # 1c008154 <__func__.3246>
1c001172:	6585                	lui	a1,0x1
1c001174:	aa958593          	addi	a1,a1,-1367 # aa9 <__stack_size+0x2a9>
1c001178:	1c008537          	lui	a0,0x1c008
1c00117c:	00850513          	addi	a0,a0,8 # 1c008008 <__l2_priv0_end+0x4130>
1c001180:	02f010ef          	jal	ra,1c0029ae <__assert_func>
1c001184:	4905                	li	s2,1
1c001186:	d381a783          	lw	a5,-712(gp) # 1c008924 <pxDelayedTaskList>
1c00118a:	439c                	lw	a5,0(a5)
1c00118c:	cfb9                	beqz	a5,1c0011ea <xTaskIncrementTick+0x104>
1c00118e:	d381a783          	lw	a5,-712(gp) # 1c008924 <pxDelayedTaskList>
1c001192:	47dc                	lw	a5,12(a5)
1c001194:	47c0                	lw	s0,12(a5)
1c001196:	405c                	lw	a5,4(s0)
1c001198:	04f4ed63          	bltu	s1,a5,1c0011f2 <xTaskIncrementTick+0x10c>
1c00119c:	00440993          	addi	s3,s0,4
1c0011a0:	854e                	mv	a0,s3
1c0011a2:	3db9                	jal	1c001000 <uxListRemove>
1c0011a4:	541c                	lw	a5,40(s0)
1c0011a6:	c781                	beqz	a5,1c0011ae <xTaskIncrementTick+0xc8>
1c0011a8:	01840513          	addi	a0,s0,24
1c0011ac:	3d91                	jal	1c001000 <uxListRemove>
1c0011ae:	5454                	lw	a3,44(s0)
1c0011b0:	4785                	li	a5,1
1c0011b2:	00d797b3          	sll	a5,a5,a3
1c0011b6:	d4818713          	addi	a4,gp,-696 # 1c008934 <uxTopReadyPriority>
1c0011ba:	4310                	lw	a2,0(a4)
1c0011bc:	8fd1                	or	a5,a5,a2
1c0011be:	c31c                	sw	a5,0(a4)
1c0011c0:	00269793          	slli	a5,a3,0x2
1c0011c4:	97b6                	add	a5,a5,a3
1c0011c6:	00279513          	slli	a0,a5,0x2
1c0011ca:	85ce                	mv	a1,s3
1c0011cc:	1c0087b7          	lui	a5,0x1c008
1c0011d0:	46878793          	addi	a5,a5,1128 # 1c008468 <pxReadyTasksLists>
1c0011d4:	953e                	add	a0,a0,a5
1c0011d6:	33e5                	jal	1c000fbe <vListInsertEnd>
1c0011d8:	5458                	lw	a4,44(s0)
1c0011da:	d341a783          	lw	a5,-716(gp) # 1c008920 <pxCurrentTCB>
1c0011de:	57dc                	lw	a5,44(a5)
1c0011e0:	faf772e3          	bgeu	a4,a5,1c001184 <xTaskIncrementTick+0x9e>
1c0011e4:	b74d                	j	1c001186 <xTaskIncrementTick+0xa0>
1c0011e6:	4901                	li	s2,0
1c0011e8:	bf79                	j	1c001186 <xTaskIncrementTick+0xa0>
1c0011ea:	577d                	li	a4,-1
1c0011ec:	d4e1a623          	sw	a4,-692(gp) # 1c008938 <xNextTaskUnblockTime>
1c0011f0:	b791                	j	1c001134 <xTaskIncrementTick+0x4e>
1c0011f2:	d4f1a623          	sw	a5,-692(gp) # 1c008938 <xNextTaskUnblockTime>
1c0011f6:	bf3d                	j	1c001134 <xTaskIncrementTick+0x4e>
1c0011f8:	d5418793          	addi	a5,gp,-684 # 1c008940 <xPendedTicks>
1c0011fc:	4398                	lw	a4,0(a5)
1c0011fe:	0705                	addi	a4,a4,1
1c001200:	c398                	sw	a4,0(a5)
1c001202:	4901                	li	s2,0
1c001204:	854a                	mv	a0,s2
1c001206:	40f2                	lw	ra,28(sp)
1c001208:	4462                	lw	s0,24(sp)
1c00120a:	44d2                	lw	s1,20(sp)
1c00120c:	4942                	lw	s2,16(sp)
1c00120e:	49b2                	lw	s3,12(sp)
1c001210:	6105                	addi	sp,sp,32
1c001212:	8082                	ret

1c001214 <vTaskSwitchContext>:
1c001214:	d441a783          	lw	a5,-700(gp) # 1c008930 <uxSchedulerSuspended>
1c001218:	c789                	beqz	a5,1c001222 <vTaskSwitchContext+0xe>
1c00121a:	4705                	li	a4,1
1c00121c:	d6e1a023          	sw	a4,-672(gp) # 1c00894c <xYieldPending>
1c001220:	8082                	ret
1c001222:	1141                	addi	sp,sp,-16
1c001224:	c606                	sw	ra,12(sp)
1c001226:	d601a023          	sw	zero,-672(gp) # 1c00894c <xYieldPending>
1c00122a:	d341a783          	lw	a5,-716(gp) # 1c008920 <pxCurrentTCB>
1c00122e:	5b98                	lw	a4,48(a5)
1c001230:	4314                	lw	a3,0(a4)
1c001232:	a5a5a7b7          	lui	a5,0xa5a5a
1c001236:	5a578793          	addi	a5,a5,1445 # a5a5a5a5 <__heap_l2_shared_start+0x89a4a585>
1c00123a:	00f69963          	bne	a3,a5,1c00124c <vTaskSwitchContext+0x38>
1c00123e:	4354                	lw	a3,4(a4)
1c001240:	a5a5a7b7          	lui	a5,0xa5a5a
1c001244:	5a578793          	addi	a5,a5,1445 # a5a5a5a5 <__heap_l2_shared_start+0x89a4a585>
1c001248:	08f68363          	beq	a3,a5,1c0012ce <vTaskSwitchContext+0xba>
1c00124c:	d3418793          	addi	a5,gp,-716 # 1c008920 <pxCurrentTCB>
1c001250:	4388                	lw	a0,0(a5)
1c001252:	438c                	lw	a1,0(a5)
1c001254:	03458593          	addi	a1,a1,52
1c001258:	73e010ef          	jal	ra,1c002996 <vApplicationStackOverflowHook>
1c00125c:	d481a703          	lw	a4,-696(gp) # 1c008934 <uxTopReadyPriority>
1c001260:	10071733          	p.fl1	a4,a4
1c001264:	00271693          	slli	a3,a4,0x2
1c001268:	96ba                	add	a3,a3,a4
1c00126a:	00269613          	slli	a2,a3,0x2
1c00126e:	1c0087b7          	lui	a5,0x1c008
1c001272:	46878793          	addi	a5,a5,1128 # 1c008468 <pxReadyTasksLists>
1c001276:	97b2                	add	a5,a5,a2
1c001278:	439c                	lw	a5,0(a5)
1c00127a:	cbad                	beqz	a5,1c0012ec <vTaskSwitchContext+0xd8>
1c00127c:	00271693          	slli	a3,a4,0x2
1c001280:	96ba                	add	a3,a3,a4
1c001282:	00269613          	slli	a2,a3,0x2
1c001286:	1c0087b7          	lui	a5,0x1c008
1c00128a:	46878793          	addi	a5,a5,1128 # 1c008468 <pxReadyTasksLists>
1c00128e:	97b2                	add	a5,a5,a2
1c001290:	43d4                	lw	a3,4(a5)
1c001292:	42d4                	lw	a3,4(a3)
1c001294:	c3d4                	sw	a3,4(a5)
1c001296:	07a1                	addi	a5,a5,8
1c001298:	06f68b63          	beq	a3,a5,1c00130e <vTaskSwitchContext+0xfa>
1c00129c:	00271793          	slli	a5,a4,0x2
1c0012a0:	973e                	add	a4,a4,a5
1c0012a2:	00271693          	slli	a3,a4,0x2
1c0012a6:	1c0087b7          	lui	a5,0x1c008
1c0012aa:	46878793          	addi	a5,a5,1128 # 1c008468 <pxReadyTasksLists>
1c0012ae:	97b6                	add	a5,a5,a3
1c0012b0:	43dc                	lw	a5,4(a5)
1c0012b2:	47d8                	lw	a4,12(a5)
1c0012b4:	d3418793          	addi	a5,gp,-716 # 1c008920 <pxCurrentTCB>
1c0012b8:	c398                	sw	a4,0(a5)
1c0012ba:	439c                	lw	a5,0(a5)
1c0012bc:	05878793          	addi	a5,a5,88
1c0012c0:	1c008737          	lui	a4,0x1c008
1c0012c4:	44f72a23          	sw	a5,1108(a4) # 1c008454 <_impure_ptr>
1c0012c8:	40b2                	lw	ra,12(sp)
1c0012ca:	0141                	addi	sp,sp,16
1c0012cc:	8082                	ret
1c0012ce:	4714                	lw	a3,8(a4)
1c0012d0:	a5a5a7b7          	lui	a5,0xa5a5a
1c0012d4:	5a578793          	addi	a5,a5,1445 # a5a5a5a5 <__heap_l2_shared_start+0x89a4a585>
1c0012d8:	f6f69ae3          	bne	a3,a5,1c00124c <vTaskSwitchContext+0x38>
1c0012dc:	4758                	lw	a4,12(a4)
1c0012de:	a5a5a7b7          	lui	a5,0xa5a5a
1c0012e2:	5a578793          	addi	a5,a5,1445 # a5a5a5a5 <__heap_l2_shared_start+0x89a4a585>
1c0012e6:	f6f713e3          	bne	a4,a5,1c00124c <vTaskSwitchContext+0x38>
1c0012ea:	bf8d                	j	1c00125c <vTaskSwitchContext+0x48>
1c0012ec:	1c0086b7          	lui	a3,0x1c008
1c0012f0:	0bc68693          	addi	a3,a3,188 # 1c0080bc <__l2_priv0_end+0x41e4>
1c0012f4:	1c008637          	lui	a2,0x1c008
1c0012f8:	16860613          	addi	a2,a2,360 # 1c008168 <__func__.3255>
1c0012fc:	6585                	lui	a1,0x1
1c0012fe:	be158593          	addi	a1,a1,-1055 # be1 <__stack_size+0x3e1>
1c001302:	1c008537          	lui	a0,0x1c008
1c001306:	00850513          	addi	a0,a0,8 # 1c008008 <__l2_priv0_end+0x4130>
1c00130a:	6a4010ef          	jal	ra,1c0029ae <__assert_func>
1c00130e:	42cc                	lw	a1,4(a3)
1c001310:	1c0087b7          	lui	a5,0x1c008
1c001314:	46878793          	addi	a5,a5,1128 # 1c008468 <pxReadyTasksLists>
1c001318:	97b2                	add	a5,a5,a2
1c00131a:	c3cc                	sw	a1,4(a5)
1c00131c:	b741                	j	1c00129c <vTaskSwitchContext+0x88>

1c00131e <vTaskEnterCritical>:
1c00131e:	30047073          	csrci	mstatus,8
1c001322:	d581a783          	lw	a5,-680(gp) # 1c008944 <xSchedulerRunning>
1c001326:	cb81                	beqz	a5,1c001336 <vTaskEnterCritical+0x18>
1c001328:	d3418793          	addi	a5,gp,-716 # 1c008920 <pxCurrentTCB>
1c00132c:	4394                	lw	a3,0(a5)
1c00132e:	42f8                	lw	a4,68(a3)
1c001330:	0705                	addi	a4,a4,1
1c001332:	c2f8                	sw	a4,68(a3)
1c001334:	439c                	lw	a5,0(a5)
1c001336:	8082                	ret

1c001338 <vTaskExitCritical>:
1c001338:	d581a783          	lw	a5,-680(gp) # 1c008944 <xSchedulerRunning>
1c00133c:	c385                	beqz	a5,1c00135c <vTaskExitCritical+0x24>
1c00133e:	d341a783          	lw	a5,-716(gp) # 1c008920 <pxCurrentTCB>
1c001342:	43fc                	lw	a5,68(a5)
1c001344:	cf81                	beqz	a5,1c00135c <vTaskExitCritical+0x24>
1c001346:	d3418793          	addi	a5,gp,-716 # 1c008920 <pxCurrentTCB>
1c00134a:	4394                	lw	a3,0(a5)
1c00134c:	42f8                	lw	a4,68(a3)
1c00134e:	177d                	addi	a4,a4,-1
1c001350:	c2f8                	sw	a4,68(a3)
1c001352:	439c                	lw	a5,0(a5)
1c001354:	43fc                	lw	a5,68(a5)
1c001356:	e399                	bnez	a5,1c00135c <vTaskExitCritical+0x24>
1c001358:	30046073          	csrsi	mstatus,8
1c00135c:	8082                	ret

1c00135e <xTaskResumeAll>:
1c00135e:	1141                	addi	sp,sp,-16
1c001360:	c606                	sw	ra,12(sp)
1c001362:	c422                	sw	s0,8(sp)
1c001364:	c226                	sw	s1,4(sp)
1c001366:	d441a783          	lw	a5,-700(gp) # 1c008930 <uxSchedulerSuspended>
1c00136a:	cf99                	beqz	a5,1c001388 <xTaskResumeAll+0x2a>
1c00136c:	3f4d                	jal	1c00131e <vTaskEnterCritical>
1c00136e:	d4418793          	addi	a5,gp,-700 # 1c008930 <uxSchedulerSuspended>
1c001372:	4398                	lw	a4,0(a5)
1c001374:	177d                	addi	a4,a4,-1
1c001376:	c398                	sw	a4,0(a5)
1c001378:	439c                	lw	a5,0(a5)
1c00137a:	0c079563          	bnez	a5,1c001444 <xTaskResumeAll+0xe6>
1c00137e:	d401a783          	lw	a5,-704(gp) # 1c00892c <uxCurrentNumberOfTasks>
1c001382:	e785                	bnez	a5,1c0013aa <xTaskResumeAll+0x4c>
1c001384:	4401                	li	s0,0
1c001386:	a0c1                	j	1c001446 <xTaskResumeAll+0xe8>
1c001388:	1c0086b7          	lui	a3,0x1c008
1c00138c:	12068693          	addi	a3,a3,288 # 1c008120 <__l2_priv0_end+0x4248>
1c001390:	1c008637          	lui	a2,0x1c008
1c001394:	14460613          	addi	a2,a2,324 # 1c008144 <__func__.3169>
1c001398:	6585                	lui	a1,0x1
1c00139a:	89958593          	addi	a1,a1,-1895 # 899 <__stack_size+0x99>
1c00139e:	1c008537          	lui	a0,0x1c008
1c0013a2:	00850513          	addi	a0,a0,8 # 1c008008 <__l2_priv0_end+0x4130>
1c0013a6:	608010ef          	jal	ra,1c0029ae <__assert_func>
1c0013aa:	4401                	li	s0,0
1c0013ac:	1c0087b7          	lui	a5,0x1c008
1c0013b0:	4cc7a783          	lw	a5,1228(a5) # 1c0084cc <xPendingReadyList>
1c0013b4:	cfb9                	beqz	a5,1c001412 <xTaskResumeAll+0xb4>
1c0013b6:	1c0087b7          	lui	a5,0x1c008
1c0013ba:	4cc78793          	addi	a5,a5,1228 # 1c0084cc <xPendingReadyList>
1c0013be:	47dc                	lw	a5,12(a5)
1c0013c0:	47c0                	lw	s0,12(a5)
1c0013c2:	01840513          	addi	a0,s0,24
1c0013c6:	c3bff0ef          	jal	ra,1c001000 <uxListRemove>
1c0013ca:	00440493          	addi	s1,s0,4
1c0013ce:	8526                	mv	a0,s1
1c0013d0:	c31ff0ef          	jal	ra,1c001000 <uxListRemove>
1c0013d4:	5448                	lw	a0,44(s0)
1c0013d6:	4705                	li	a4,1
1c0013d8:	00a71733          	sll	a4,a4,a0
1c0013dc:	d4818693          	addi	a3,gp,-696 # 1c008934 <uxTopReadyPriority>
1c0013e0:	429c                	lw	a5,0(a3)
1c0013e2:	8f5d                	or	a4,a4,a5
1c0013e4:	c298                	sw	a4,0(a3)
1c0013e6:	00251793          	slli	a5,a0,0x2
1c0013ea:	97aa                	add	a5,a5,a0
1c0013ec:	078a                	slli	a5,a5,0x2
1c0013ee:	85a6                	mv	a1,s1
1c0013f0:	1c008537          	lui	a0,0x1c008
1c0013f4:	46850513          	addi	a0,a0,1128 # 1c008468 <pxReadyTasksLists>
1c0013f8:	953e                	add	a0,a0,a5
1c0013fa:	bc5ff0ef          	jal	ra,1c000fbe <vListInsertEnd>
1c0013fe:	5458                	lw	a4,44(s0)
1c001400:	d341a783          	lw	a5,-716(gp) # 1c008920 <pxCurrentTCB>
1c001404:	57dc                	lw	a5,44(a5)
1c001406:	faf763e3          	bltu	a4,a5,1c0013ac <xTaskResumeAll+0x4e>
1c00140a:	4705                	li	a4,1
1c00140c:	d6e1a023          	sw	a4,-672(gp) # 1c00894c <xYieldPending>
1c001410:	bf71                	j	1c0013ac <xTaskResumeAll+0x4e>
1c001412:	c019                	beqz	s0,1c001418 <xTaskResumeAll+0xba>
1c001414:	c13ff0ef          	jal	ra,1c001026 <prvResetNextTaskUnblockTime>
1c001418:	d541a403          	lw	s0,-684(gp) # 1c008940 <xPendedTicks>
1c00141c:	e811                	bnez	s0,1c001430 <xTaskResumeAll+0xd2>
1c00141e:	d601a403          	lw	s0,-672(gp) # 1c00894c <xYieldPending>
1c001422:	c015                	beqz	s0,1c001446 <xTaskResumeAll+0xe8>
1c001424:	00000073          	ecall
1c001428:	4405                	li	s0,1
1c00142a:	a831                	j	1c001446 <xTaskResumeAll+0xe8>
1c00142c:	147d                	addi	s0,s0,-1
1c00142e:	c801                	beqz	s0,1c00143e <xTaskResumeAll+0xe0>
1c001430:	cb7ff0ef          	jal	ra,1c0010e6 <xTaskIncrementTick>
1c001434:	dd65                	beqz	a0,1c00142c <xTaskResumeAll+0xce>
1c001436:	4705                	li	a4,1
1c001438:	d6e1a023          	sw	a4,-672(gp) # 1c00894c <xYieldPending>
1c00143c:	bfc5                	j	1c00142c <xTaskResumeAll+0xce>
1c00143e:	d401aa23          	sw	zero,-684(gp) # 1c008940 <xPendedTicks>
1c001442:	bff1                	j	1c00141e <xTaskResumeAll+0xc0>
1c001444:	4401                	li	s0,0
1c001446:	3dcd                	jal	1c001338 <vTaskExitCritical>
1c001448:	8522                	mv	a0,s0
1c00144a:	40b2                	lw	ra,12(sp)
1c00144c:	4422                	lw	s0,8(sp)
1c00144e:	4492                	lw	s1,4(sp)
1c001450:	0141                	addi	sp,sp,16
1c001452:	8082                	ret

1c001454 <vTaskDelay>:
1c001454:	c531                	beqz	a0,1c0014a0 <vTaskDelay+0x4c>
1c001456:	1141                	addi	sp,sp,-16
1c001458:	c606                	sw	ra,12(sp)
1c00145a:	c422                	sw	s0,8(sp)
1c00145c:	842a                	mv	s0,a0
1c00145e:	d441a783          	lw	a5,-700(gp) # 1c008930 <uxSchedulerSuspended>
1c001462:	ef99                	bnez	a5,1c001480 <vTaskDelay+0x2c>
1c001464:	c77ff0ef          	jal	ra,1c0010da <vTaskSuspendAll>
1c001468:	4581                	li	a1,0
1c00146a:	8522                	mv	a0,s0
1c00146c:	bdbff0ef          	jal	ra,1c001046 <prvAddCurrentTaskToDelayedList>
1c001470:	35fd                	jal	1c00135e <xTaskResumeAll>
1c001472:	e119                	bnez	a0,1c001478 <vTaskDelay+0x24>
1c001474:	00000073          	ecall
1c001478:	40b2                	lw	ra,12(sp)
1c00147a:	4422                	lw	s0,8(sp)
1c00147c:	0141                	addi	sp,sp,16
1c00147e:	8082                	ret
1c001480:	1c0086b7          	lui	a3,0x1c008
1c001484:	10468693          	addi	a3,a3,260 # 1c008104 <__l2_priv0_end+0x422c>
1c001488:	1c008637          	lui	a2,0x1c008
1c00148c:	13860613          	addi	a2,a2,312 # 1c008138 <__func__.3100>
1c001490:	54400593          	li	a1,1348
1c001494:	1c008537          	lui	a0,0x1c008
1c001498:	00850513          	addi	a0,a0,8 # 1c008008 <__l2_priv0_end+0x4130>
1c00149c:	512010ef          	jal	ra,1c0029ae <__assert_func>
1c0014a0:	00000073          	ecall
1c0014a4:	8082                	ret

1c0014a6 <_close>:
1c0014a6:	557d                	li	a0,-1
1c0014a8:	8082                	ret

1c0014aa <_exit>:
1c0014aa:	1141                	addi	sp,sp,-16
1c0014ac:	872a                	mv	a4,a0
1c0014ae:	1a1027b7          	lui	a5,0x1a102
1c0014b2:	09878793          	addi	a5,a5,152 # 1a102098 <__heap_l1_cluster_start+0xa102078>
1c0014b6:	439c                	lw	a5,0(a5)
1c0014b8:	8bc1                	andi	a5,a5,16
1c0014ba:	fbf5                	bnez	a5,1c0014ae <_exit+0x4>
1c0014bc:	c602                	sw	zero,12(sp)
1c0014be:	a021                	j	1c0014c6 <_exit+0x1c>
1c0014c0:	47b2                	lw	a5,12(sp)
1c0014c2:	0785                	addi	a5,a5,1
1c0014c4:	c63e                	sw	a5,12(sp)
1c0014c6:	46b2                	lw	a3,12(sp)
1c0014c8:	6785                	lui	a5,0x1
1c0014ca:	bff78793          	addi	a5,a5,-1025 # bff <__stack_size+0x3ff>
1c0014ce:	fed7d9e3          	bge	a5,a3,1c0014c0 <_exit+0x16>
1c0014d2:	c1f747b3          	p.bset	a5,a4,0,31
1c0014d6:	1a104737          	lui	a4,0x1a104
1c0014da:	0a070713          	addi	a4,a4,160 # 1a1040a0 <__heap_l1_cluster_start+0xa104080>
1c0014de:	c31c                	sw	a5,0(a4)
1c0014e0:	10500073          	wfi
1c0014e4:	bff5                	j	1c0014e0 <_exit+0x36>

1c0014e6 <_fstat>:
1c0014e6:	6789                	lui	a5,0x2
1c0014e8:	c1dc                	sw	a5,4(a1)
1c0014ea:	4501                	li	a0,0
1c0014ec:	8082                	ret

1c0014ee <_getpid>:
1c0014ee:	4505                	li	a0,1
1c0014f0:	8082                	ret

1c0014f2 <_isatty>:
1c0014f2:	157d                	addi	a0,a0,-1
1c0014f4:	00153513          	seqz	a0,a0
1c0014f8:	8082                	ret

1c0014fa <_kill>:
1c0014fa:	4759                	li	a4,22
1c0014fc:	18e1a823          	sw	a4,400(gp) # 1c008d7c <errno>
1c001500:	557d                	li	a0,-1
1c001502:	8082                	ret

1c001504 <_lseek>:
1c001504:	4501                	li	a0,0
1c001506:	8082                	ret

1c001508 <_read>:
1c001508:	4501                	li	a0,0
1c00150a:	8082                	ret

1c00150c <_write>:
1c00150c:	1141                	addi	sp,sp,-16
1c00150e:	c606                	sw	ra,12(sp)
1c001510:	c422                	sw	s0,8(sp)
1c001512:	c226                	sw	s1,4(sp)
1c001514:	c04a                	sw	s2,0(sp)
1c001516:	84b2                	mv	s1,a2
1c001518:	157d                	addi	a0,a0,-1
1c00151a:	4785                	li	a5,1
1c00151c:	04a7e663          	bltu	a5,a0,1c001568 <_write+0x5c>
1c001520:	1a1027b7          	lui	a5,0x1a102
1c001524:	09878793          	addi	a5,a5,152 # 1a102098 <__heap_l1_cluster_start+0xa102078>
1c001528:	439c                	lw	a5,0(a5)
1c00152a:	8bc1                	andi	a5,a5,16
1c00152c:	fbf5                	bnez	a5,1c001520 <_write+0x14>
1c00152e:	10000413          	li	s0,256
1c001532:	0484d433          	p.minu	s0,s1,s0
1c001536:	1c008537          	lui	a0,0x1c008
1c00153a:	4f450913          	addi	s2,a0,1268 # 1c0084f4 <copyout_buf.4122>
1c00153e:	8622                	mv	a2,s0
1c001540:	4f450513          	addi	a0,a0,1268
1c001544:	a55ff0ef          	jal	ra,1c000f98 <memcpy>
1c001548:	1a1027b7          	lui	a5,0x1a102
1c00154c:	08078793          	addi	a5,a5,128 # 1a102080 <__heap_l1_cluster_start+0xa102060>
1c001550:	0127a823          	sw	s2,16(a5)
1c001554:	cbc4                	sw	s1,20(a5)
1c001556:	4741                	li	a4,16
1c001558:	cf98                	sw	a4,24(a5)
1c00155a:	8522                	mv	a0,s0
1c00155c:	40b2                	lw	ra,12(sp)
1c00155e:	4422                	lw	s0,8(sp)
1c001560:	4492                	lw	s1,4(sp)
1c001562:	4902                	lw	s2,0(sp)
1c001564:	0141                	addi	sp,sp,16
1c001566:	8082                	ret
1c001568:	05800713          	li	a4,88
1c00156c:	18e1a823          	sw	a4,400(gp) # 1c008d7c <errno>
1c001570:	557d                	li	a0,-1
1c001572:	b7ed                	j	1c00155c <_write+0x50>

1c001574 <_sbrk>:
1c001574:	87aa                	mv	a5,a0
1c001576:	1c008737          	lui	a4,0x1c008
1c00157a:	44c72503          	lw	a0,1100(a4) # 1c00844c <brk>
1c00157e:	97aa                	add	a5,a5,a0
1c001580:	1c00d737          	lui	a4,0x1c00d
1c001584:	d8070713          	addi	a4,a4,-640 # 1c00cd80 <__heap_end>
1c001588:	00e7f763          	bgeu	a5,a4,1c001596 <_sbrk+0x22>
1c00158c:	1c008737          	lui	a4,0x1c008
1c001590:	44f72623          	sw	a5,1100(a4) # 1c00844c <brk>
1c001594:	8082                	ret
1c001596:	4731                	li	a4,12
1c001598:	18e1a823          	sw	a4,400(gp) # 1c008d7c <errno>
1c00159c:	557d                	li	a0,-1
1c00159e:	8082                	ret

1c0015a0 <__malloc_lock>:
1c0015a0:	1141                	addi	sp,sp,-16
1c0015a2:	c606                	sw	ra,12(sp)
1c0015a4:	b37ff0ef          	jal	ra,1c0010da <vTaskSuspendAll>
1c0015a8:	40b2                	lw	ra,12(sp)
1c0015aa:	0141                	addi	sp,sp,16
1c0015ac:	8082                	ret

1c0015ae <__malloc_unlock>:
1c0015ae:	1141                	addi	sp,sp,-16
1c0015b0:	c606                	sw	ra,12(sp)
1c0015b2:	dadff0ef          	jal	ra,1c00135e <xTaskResumeAll>
1c0015b6:	40b2                	lw	ra,12(sp)
1c0015b8:	0141                	addi	sp,sp,16
1c0015ba:	8082                	ret

1c0015bc <pi_cl_l1_free>:
1c0015bc:	1141                	addi	sp,sp,-16
1c0015be:	c606                	sw	ra,12(sp)
1c0015c0:	c422                	sw	s0,8(sp)
1c0015c2:	30047473          	csrrci	s0,mstatus,8
1c0015c6:	d8418513          	addi	a0,gp,-636 # 1c008970 <__cl_l1_malloc>
1c0015ca:	2039                	jal	1c0015d8 <__malloc_free>
1c0015cc:	30041073          	csrw	mstatus,s0
1c0015d0:	40b2                	lw	ra,12(sp)
1c0015d2:	4422                	lw	s0,8(sp)
1c0015d4:	0141                	addi	sp,sp,16
1c0015d6:	8082                	ret

1c0015d8 <__malloc_free>:
1c0015d8:	411c                	lw	a5,0(a0)
1c0015da:	061d                	addi	a2,a2,7
1c0015dc:	c4063633          	p.bclr	a2,a2,2,0
1c0015e0:	4701                	li	a4,0
1c0015e2:	c791                	beqz	a5,1c0015ee <__malloc_free+0x16>
1c0015e4:	00b7f563          	bgeu	a5,a1,1c0015ee <__malloc_free+0x16>
1c0015e8:	873e                	mv	a4,a5
1c0015ea:	43dc                	lw	a5,4(a5)
1c0015ec:	bfdd                	j	1c0015e2 <__malloc_free+0xa>
1c0015ee:	00c586b3          	add	a3,a1,a2
1c0015f2:	00f68c63          	beq	a3,a5,1c00160a <__malloc_free+0x32>
1c0015f6:	c190                	sw	a2,0(a1)
1c0015f8:	c1dc                	sw	a5,4(a1)
1c0015fa:	c705                	beqz	a4,1c001622 <__malloc_free+0x4a>
1c0015fc:	431c                	lw	a5,0(a4)
1c0015fe:	00f706b3          	add	a3,a4,a5
1c001602:	00b68a63          	beq	a3,a1,1c001616 <__malloc_free+0x3e>
1c001606:	c34c                	sw	a1,4(a4)
1c001608:	8082                	ret
1c00160a:	4394                	lw	a3,0(a5)
1c00160c:	9636                	add	a2,a2,a3
1c00160e:	c190                	sw	a2,0(a1)
1c001610:	43dc                	lw	a5,4(a5)
1c001612:	c1dc                	sw	a5,4(a1)
1c001614:	b7dd                	j	1c0015fa <__malloc_free+0x22>
1c001616:	4194                	lw	a3,0(a1)
1c001618:	97b6                	add	a5,a5,a3
1c00161a:	c31c                	sw	a5,0(a4)
1c00161c:	41dc                	lw	a5,4(a1)
1c00161e:	c35c                	sw	a5,4(a4)
1c001620:	8082                	ret
1c001622:	c10c                	sw	a1,0(a0)
1c001624:	8082                	ret

1c001626 <timer_irq_handler>:
1c001626:	1141                	addi	sp,sp,-16
1c001628:	c606                	sw	ra,12(sp)
1c00162a:	abdff0ef          	jal	ra,1c0010e6 <xTaskIncrementTick>
1c00162e:	e501                	bnez	a0,1c001636 <timer_irq_handler+0x10>
1c001630:	40b2                	lw	ra,12(sp)
1c001632:	0141                	addi	sp,sp,16
1c001634:	8082                	ret
1c001636:	bdfff0ef          	jal	ra,1c001214 <vTaskSwitchContext>
1c00163a:	bfdd                	j	1c001630 <timer_irq_handler+0xa>

1c00163c <system_init>:
1c00163c:	1141                	addi	sp,sp,-16
1c00163e:	c606                	sw	ra,12(sp)
1c001640:	c422                	sw	s0,8(sp)
1c001642:	24d5                	jal	1c001926 <pulp_irq_init>
1c001644:	1c0097b7          	lui	a5,0x1c009
1c001648:	97878793          	addi	a5,a5,-1672 # 1c008978 <isr_table>
1c00164c:	1c001737          	lui	a4,0x1c001
1c001650:	6f070713          	addi	a4,a4,1776 # 1c0016f0 <cl_notify_fc_event_handler>
1c001654:	c798                	sw	a4,8(a5)
1c001656:	1c001737          	lui	a4,0x1c001
1c00165a:	62670713          	addi	a4,a4,1574 # 1c001626 <timer_irq_handler>
1c00165e:	d798                	sw	a4,40(a5)
1c001660:	1c001737          	lui	a4,0x1c001
1c001664:	f6270713          	addi	a4,a4,-158 # 1c000f62 <fc_soc_event_handler>
1c001668:	d7b8                	sw	a4,104(a5)
1c00166a:	2cd9                	jal	1c001940 <soc_eu_event_init>
1c00166c:	4569                	li	a0,26
1c00166e:	2e01                	jal	1c00197e <pi_fc_event_handler_init>
1c001670:	2455                	jal	1c001914 <irq_clint_global_enable>
1c001672:	4529                	li	a0,10
1c001674:	245d                	jal	1c00191a <irq_clint_enable>
1c001676:	4569                	li	a0,26
1c001678:	244d                	jal	1c00191a <irq_clint_enable>
1c00167a:	1a102437          	lui	s0,0x1a102
1c00167e:	401c                	lw	a5,0(s0)
1c001680:	c007c7b3          	p.bset	a5,a5,0,0
1c001684:	08f4202b          	p.sw	a5,128(s0!) # 1a102080 <__heap_l1_cluster_start+0xa102060>
1c001688:	4509                	li	a0,2
1c00168a:	2091                	jal	1c0016ce <pi_freq_get>
1c00168c:	67b9                	lui	a5,0xe
1c00168e:	10078793          	addi	a5,a5,256 # e100 <__stack_size+0xd900>
1c001692:	97aa                	add	a5,a5,a0
1c001694:	6571                	lui	a0,0x1c
1c001696:	20050513          	addi	a0,a0,512 # 1c200 <__heap_l1_cluster_size+0xc220>
1c00169a:	02a7d7b3          	divu	a5,a5,a0
1c00169e:	17fd                	addi	a5,a5,-1
1c0016a0:	07c2                	slli	a5,a5,0x10
1c0016a2:	3167e793          	ori	a5,a5,790
1c0016a6:	d05c                	sw	a5,36(s0)
1c0016a8:	40b2                	lw	ra,12(sp)
1c0016aa:	4422                	lw	s0,8(sp)
1c0016ac:	0141                	addi	sp,sp,16
1c0016ae:	8082                	ret

1c0016b0 <vSystemIrqHandler>:
1c0016b0:	1141                	addi	sp,sp,-16
1c0016b2:	c606                	sw	ra,12(sp)
1c0016b4:	0ff57793          	andi	a5,a0,255
1c0016b8:	1c009537          	lui	a0,0x1c009
1c0016bc:	078a                	slli	a5,a5,0x2
1c0016be:	97850513          	addi	a0,a0,-1672 # 1c008978 <isr_table>
1c0016c2:	953e                	add	a0,a0,a5
1c0016c4:	411c                	lw	a5,0(a0)
1c0016c6:	9782                	jalr	a5
1c0016c8:	40b2                	lw	ra,12(sp)
1c0016ca:	0141                	addi	sp,sp,16
1c0016cc:	8082                	ret

1c0016ce <pi_freq_get>:
1c0016ce:	4785                	li	a5,1
1c0016d0:	00a7f963          	bgeu	a5,a0,1c0016e2 <pi_freq_get+0x14>
1c0016d4:	00253c63          	p.bneimm	a0,2,1c0016ec <pi_freq_get+0x1e>
1c0016d8:	00989537          	lui	a0,0x989
1c0016dc:	68050513          	addi	a0,a0,1664 # 989680 <__heap_l2_shared_size+0x9196a0>
1c0016e0:	8082                	ret
1c0016e2:	01313537          	lui	a0,0x1313
1c0016e6:	d0050513          	addi	a0,a0,-768 # 1312d00 <__heap_l2_shared_size+0x12a2d20>
1c0016ea:	8082                	ret
1c0016ec:	4501                	li	a0,0
1c0016ee:	8082                	ret

1c0016f0 <cl_notify_fc_event_handler>:
1c0016f0:	1141                	addi	sp,sp,-16
1c0016f2:	c606                	sw	ra,12(sp)
1c0016f4:	c422                	sw	s0,8(sp)
1c0016f6:	c226                	sw	s1,4(sp)
1c0016f8:	d641a483          	lw	s1,-668(gp) # 1c008950 <__per_cluster_data>
1c0016fc:	58c0                	lw	s0,52(s1)
1c0016fe:	fc1437b3          	p.bclr	a5,s0,30,1
1c001702:	c39d                	beqz	a5,1c001728 <cl_notify_fc_event_handler+0x38>
1c001704:	c0043433          	p.bclr	s0,s0,0,0
1c001708:	401c                	lw	a5,0(s0)
1c00170a:	4048                	lw	a0,4(s0)
1c00170c:	9782                	jalr	a5
1c00170e:	8522                	mv	a0,s0
1c001710:	24f9                	jal	1c0019de <pi_task_release>
1c001712:	0204aa23          	sw	zero,52(s1)
1c001716:	102017b7          	lui	a5,0x10201
1c00171a:	e007a223          	sw	zero,-508(a5) # 10200e04 <__heap_l1_cluster_start+0x200de4>
1c00171e:	40b2                	lw	ra,12(sp)
1c001720:	4422                	lw	s0,8(sp)
1c001722:	4492                	lw	s1,4(sp)
1c001724:	0141                	addi	sp,sp,16
1c001726:	8082                	ret
1c001728:	8522                	mv	a0,s0
1c00172a:	24e5                	jal	1c001a12 <__pi_task_push>
1c00172c:	8522                	mv	a0,s0
1c00172e:	2c45                	jal	1c0019de <pi_task_release>
1c001730:	b7cd                	j	1c001712 <cl_notify_fc_event_handler+0x22>

1c001732 <pi_cl_send_task_to_fc>:
1c001732:	1141                	addi	sp,sp,-16
1c001734:	c606                	sw	ra,12(sp)
1c001736:	002047b7          	lui	a5,0x204
1c00173a:	0c078793          	addi	a5,a5,192 # 2040c0 <__heap_l2_shared_size+0x1940e0>
1c00173e:	0007e703          	p.elw	a4,0(a5)
1c001742:	d641a603          	lw	a2,-668(gp) # 1c008950 <__per_cluster_data>
1c001746:	5a5c                	lw	a5,52(a2)
1c001748:	cb99                	beqz	a5,1c00175e <pi_cl_send_task_to_fc+0x2c>
1c00174a:	002047b7          	lui	a5,0x204
1c00174e:	4709                	li	a4,2
1c001750:	c798                	sw	a4,8(a5)
1c001752:	03c78693          	addi	a3,a5,60 # 20403c <__heap_l2_shared_size+0x19405c>
1c001756:	0006e583          	p.elw	a1,0(a3)
1c00175a:	c3d8                	sw	a4,4(a5)
1c00175c:	b7ed                	j	1c001746 <pi_cl_send_task_to_fc+0x14>
1c00175e:	da48                	sw	a0,52(a2)
1c001760:	4509                	li	a0,2
1c001762:	20c1                	jal	1c001822 <irq_pend>
1c001764:	002047b7          	lui	a5,0x204
1c001768:	0c07a023          	sw	zero,192(a5) # 2040c0 <__heap_l2_shared_size+0x1940e0>
1c00176c:	40b2                	lw	ra,12(sp)
1c00176e:	0141                	addi	sp,sp,16
1c001770:	8082                	ret

1c001772 <cl_task_finish>:
1c001772:	1141                	addi	sp,sp,-16
1c001774:	c606                	sw	ra,12(sp)
1c001776:	c422                	sw	s0,8(sp)
1c001778:	c226                	sw	s1,4(sp)
1c00177a:	c04a                	sw	s2,0(sp)
1c00177c:	f14027f3          	csrr	a5,mhartid
1c001780:	8395                	srli	a5,a5,0x5
1c001782:	f267b7b3          	p.bclr	a5,a5,25,6
1c001786:	078a                	slli	a5,a5,0x2
1c001788:	d6418713          	addi	a4,gp,-668 # 1c008950 <__per_cluster_data>
1c00178c:	97ba                	add	a5,a5,a4
1c00178e:	4380                	lw	s0,0(a5)
1c001790:	00042903          	lw	s2,0(s0)
1c001794:	86ca                	mv	a3,s2
1c001796:	07c00613          	li	a2,124
1c00179a:	1c0085b7          	lui	a1,0x1c008
1c00179e:	1b058593          	addi	a1,a1,432 # 1c0081b0 <__func__.5333>
1c0017a2:	1c008537          	lui	a0,0x1c008
1c0017a6:	17c50513          	addi	a0,a0,380 # 1c00817c <__func__.3255+0x14>
1c0017aa:	7dc010ef          	jal	ra,1c002f86 <iprintf>
1c0017ae:	505c                	lw	a5,36(s0)
1c0017b0:	439c                	lw	a5,0(a5)
1c0017b2:	fff7aee3          	p.beqimm	a5,-1,1c0017ae <cl_task_finish+0x3c>
1c0017b6:	4004                	lw	s1,0(s0)
1c0017b8:	509c                	lw	a5,32(s1)
1c0017ba:	c01c                	sw	a5,0(s0)
1c0017bc:	c385                	beqz	a5,1c0017dc <cl_task_finish+0x6a>
1c0017be:	541c                	lw	a5,40(s0)
1c0017c0:	0007a023          	sw	zero,0(a5)
1c0017c4:	4cdc                	lw	a5,28(s1)
1c0017c6:	ef91                	bnez	a5,1c0017e2 <cl_task_finish+0x70>
1c0017c8:	01892503          	lw	a0,24(s2)
1c0017cc:	c111                	beqz	a0,1c0017d0 <cl_task_finish+0x5e>
1c0017ce:	3795                	jal	1c001732 <pi_cl_send_task_to_fc>
1c0017d0:	40b2                	lw	ra,12(sp)
1c0017d2:	4422                	lw	s0,8(sp)
1c0017d4:	4492                	lw	s1,4(sp)
1c0017d6:	4902                	lw	s2,0(sp)
1c0017d8:	0141                	addi	sp,sp,16
1c0017da:	8082                	ret
1c0017dc:	00042223          	sw	zero,4(s0)
1c0017e0:	bff9                	j	1c0017be <cl_task_finish+0x4c>
1c0017e2:	489c                	lw	a5,16(s1)
1c0017e4:	00379413          	slli	s0,a5,0x3
1c0017e8:	8c1d                	sub	s0,s0,a5
1c0017ea:	44dc                	lw	a5,12(s1)
1c0017ec:	943e                	add	s0,s0,a5
1c0017ee:	8622                	mv	a2,s0
1c0017f0:	448c                	lw	a1,8(s1)
1c0017f2:	4501                	li	a0,0
1c0017f4:	dc9ff0ef          	jal	ra,1c0015bc <pi_cl_l1_free>
1c0017f8:	8722                	mv	a4,s0
1c0017fa:	4494                	lw	a3,8(s1)
1c0017fc:	1b700613          	li	a2,439
1c001800:	1c0085b7          	lui	a1,0x1c008
1c001804:	1c058593          	addi	a1,a1,448 # 1c0081c0 <__func__.5431>
1c001808:	1c008537          	lui	a0,0x1c008
1c00180c:	19c50513          	addi	a0,a0,412 # 1c00819c <__func__.3255+0x34>
1c001810:	776010ef          	jal	ra,1c002f86 <iprintf>
1c001814:	0004a423          	sw	zero,8(s1)
1c001818:	0004a623          	sw	zero,12(s1)
1c00181c:	0004ae23          	sw	zero,28(s1)
1c001820:	b765                	j	1c0017c8 <cl_task_finish+0x56>

1c001822 <irq_pend>:
1c001822:	0ff00793          	li	a5,255
1c001826:	00a7eb63          	bltu	a5,a0,1c00183c <irq_pend+0x1a>
1c00182a:	01a207b7          	lui	a5,0x1a20
1c00182e:	10078793          	addi	a5,a5,256 # 1a20100 <__heap_l2_shared_size+0x19b0120>
1c001832:	953e                	add	a0,a0,a5
1c001834:	0512                	slli	a0,a0,0x4
1c001836:	4785                	li	a5,1
1c001838:	c11c                	sw	a5,0(a0)
1c00183a:	8082                	ret
1c00183c:	1141                	addi	sp,sp,-16
1c00183e:	c606                	sw	ra,12(sp)
1c001840:	1c0086b7          	lui	a3,0x1c008
1c001844:	23068693          	addi	a3,a3,560 # 1c008230 <__func__.5431+0x70>
1c001848:	1c008637          	lui	a2,0x1c008
1c00184c:	26060613          	addi	a2,a2,608 # 1c008260 <__func__.1889>
1c001850:	04400593          	li	a1,68
1c001854:	1c008537          	lui	a0,0x1c008
1c001858:	1f450513          	addi	a0,a0,500 # 1c0081f4 <__func__.5431+0x34>
1c00185c:	152010ef          	jal	ra,1c0029ae <__assert_func>

1c001860 <irq_set_lvl_and_prio>:
1c001860:	1a200737          	lui	a4,0x1a200
1c001864:	4318                	lw	a4,0(a4)
1c001866:	8305                	srli	a4,a4,0x1
1c001868:	f64737b3          	p.bclr	a5,a4,27,4
1c00186c:	4721                	li	a4,8
1c00186e:	40f706b3          	sub	a3,a4,a5
1c001872:	577d                	li	a4,-1
1c001874:	00f717b3          	sll	a5,a4,a5
1c001878:	fff7c793          	not	a5,a5
1c00187c:	8fed                	and	a5,a5,a1
1c00187e:	00d797b3          	sll	a5,a5,a3
1c001882:	00d71733          	sll	a4,a4,a3
1c001886:	fff74713          	not	a4,a4
1c00188a:	8e79                	and	a2,a2,a4
1c00188c:	8fd1                	or	a5,a5,a2
1c00188e:	ee87b7b3          	p.bclr	a5,a5,23,8
1c001892:	0512                	slli	a0,a0,0x4
1c001894:	1a201737          	lui	a4,0x1a201
1c001898:	0731                	addi	a4,a4,12
1c00189a:	953a                	add	a0,a0,a4
1c00189c:	c11c                	sw	a5,0(a0)
1c00189e:	8082                	ret

1c0018a0 <irq_set_trigger_type>:
1c0018a0:	0512                	slli	a0,a0,0x4
1c0018a2:	1a2017b7          	lui	a5,0x1a201
1c0018a6:	07a1                	addi	a5,a5,8
1c0018a8:	953e                	add	a0,a0,a5
1c0018aa:	411c                	lw	a5,0(a0)
1c0018ac:	c217b7b3          	p.bclr	a5,a5,1,1
1c0018b0:	0586                	slli	a1,a1,0x1
1c0018b2:	8999                	andi	a1,a1,6
1c0018b4:	8ddd                	or	a1,a1,a5
1c0018b6:	c10c                	sw	a1,0(a0)
1c0018b8:	8082                	ret

1c0018ba <irq_enable>:
1c0018ba:	1141                	addi	sp,sp,-16
1c0018bc:	c606                	sw	ra,12(sp)
1c0018be:	c422                	sw	s0,8(sp)
1c0018c0:	0ff00793          	li	a5,255
1c0018c4:	02a7e863          	bltu	a5,a0,1c0018f4 <irq_enable+0x3a>
1c0018c8:	842a                	mv	s0,a0
1c0018ca:	00451793          	slli	a5,a0,0x4
1c0018ce:	1a201737          	lui	a4,0x1a201
1c0018d2:	00870693          	addi	a3,a4,8 # 1a201008 <__heap_l1_cluster_start+0xa200fe8>
1c0018d6:	96be                	add	a3,a3,a5
1c0018d8:	4605                	li	a2,1
1c0018da:	c290                	sw	a2,0(a3)
1c0018dc:	0711                	addi	a4,a4,4
1c0018de:	97ba                	add	a5,a5,a4
1c0018e0:	c390                	sw	a2,0(a5)
1c0018e2:	4585                	li	a1,1
1c0018e4:	3fb5                	jal	1c001860 <irq_set_lvl_and_prio>
1c0018e6:	4585                	li	a1,1
1c0018e8:	8522                	mv	a0,s0
1c0018ea:	3f5d                	jal	1c0018a0 <irq_set_trigger_type>
1c0018ec:	40b2                	lw	ra,12(sp)
1c0018ee:	4422                	lw	s0,8(sp)
1c0018f0:	0141                	addi	sp,sp,16
1c0018f2:	8082                	ret
1c0018f4:	1c0086b7          	lui	a3,0x1c008
1c0018f8:	23068693          	addi	a3,a3,560 # 1c008230 <__func__.5431+0x70>
1c0018fc:	1c008637          	lui	a2,0x1c008
1c001900:	25460613          	addi	a2,a2,596 # 1c008254 <__func__.1881>
1c001904:	02c00593          	li	a1,44
1c001908:	1c008537          	lui	a0,0x1c008
1c00190c:	1f450513          	addi	a0,a0,500 # 1c0081f4 <__func__.5431+0x34>
1c001910:	09e010ef          	jal	ra,1c0029ae <__assert_func>

1c001914 <irq_clint_global_enable>:
1c001914:	30046573          	csrrsi	a0,mstatus,8
1c001918:	8082                	ret

1c00191a <irq_clint_enable>:
1c00191a:	4785                	li	a5,1
1c00191c:	00a79533          	sll	a0,a5,a0
1c001920:	30452573          	csrrs	a0,mie,a0
1c001924:	8082                	ret

1c001926 <pulp_irq_init>:
1c001926:	34705073          	csrwi	0x347,0
1c00192a:	47a1                	li	a5,8
1c00192c:	1a200737          	lui	a4,0x1a200
1c001930:	00f70023          	sb	a5,0(a4) # 1a200000 <__heap_l1_cluster_start+0xa1fffe0>
1c001934:	8082                	ret

1c001936 <soc_eu_mask_set>:
1c001936:	1a1067b7          	lui	a5,0x1a106
1c00193a:	953e                	add	a0,a0,a5
1c00193c:	c10c                	sw	a1,0(a0)
1c00193e:	8082                	ret

1c001940 <soc_eu_event_init>:
1c001940:	1141                	addi	sp,sp,-16
1c001942:	c606                	sw	ra,12(sp)
1c001944:	c422                	sw	s0,8(sp)
1c001946:	4401                	li	s0,0
1c001948:	a031                	j	1c001954 <soc_eu_event_init+0x14>
1c00194a:	0405                	addi	s0,s0,1
1c00194c:	55fd                	li	a1,-1
1c00194e:	00241513          	slli	a0,s0,0x2
1c001952:	37d5                	jal	1c001936 <soc_eu_mask_set>
1c001954:	479d                	li	a5,7
1c001956:	fe87fae3          	bgeu	a5,s0,1c00194a <soc_eu_event_init+0xa>
1c00195a:	40b2                	lw	ra,12(sp)
1c00195c:	4422                	lw	s0,8(sp)
1c00195e:	0141                	addi	sp,sp,16
1c001960:	8082                	ret

1c001962 <fc_event_null_event>:
1c001962:	8082                	ret

1c001964 <pi_fc_event_handler_clear>:
1c001964:	00251793          	slli	a5,a0,0x2
1c001968:	1c008537          	lui	a0,0x1c008
1c00196c:	5f450513          	addi	a0,a0,1524 # 1c0085f4 <fc_event_handlers>
1c001970:	953e                	add	a0,a0,a5
1c001972:	1c0027b7          	lui	a5,0x1c002
1c001976:	96278793          	addi	a5,a5,-1694 # 1c001962 <fc_event_null_event>
1c00197a:	c11c                	sw	a5,0(a0)
1c00197c:	8082                	ret

1c00197e <pi_fc_event_handler_init>:
1c00197e:	1141                	addi	sp,sp,-16
1c001980:	c606                	sw	ra,12(sp)
1c001982:	c422                	sw	s0,8(sp)
1c001984:	c226                	sw	s1,4(sp)
1c001986:	84aa                	mv	s1,a0
1c001988:	4401                	li	s0,0
1c00198a:	0a700793          	li	a5,167
1c00198e:	0087c663          	blt	a5,s0,1c00199a <pi_fc_event_handler_init+0x1c>
1c001992:	8522                	mv	a0,s0
1c001994:	3fc1                	jal	1c001964 <pi_fc_event_handler_clear>
1c001996:	0405                	addi	s0,s0,1
1c001998:	bfcd                	j	1c00198a <pi_fc_event_handler_init+0xc>
1c00199a:	8526                	mv	a0,s1
1c00199c:	3f39                	jal	1c0018ba <irq_enable>
1c00199e:	4581                	li	a1,0
1c0019a0:	8526                	mv	a0,s1
1c0019a2:	3dfd                	jal	1c0018a0 <irq_set_trigger_type>
1c0019a4:	40b2                	lw	ra,12(sp)
1c0019a6:	4422                	lw	s0,8(sp)
1c0019a8:	4492                	lw	s1,4(sp)
1c0019aa:	0141                	addi	sp,sp,16
1c0019ac:	8082                	ret

1c0019ae <pi_time_wait_us>:
1c0019ae:	1101                	addi	sp,sp,-32
1c0019b0:	ce06                	sw	ra,28(sp)
1c0019b2:	3e700793          	li	a5,999
1c0019b6:	00a7cd63          	blt	a5,a0,1c0019d0 <pi_time_wait_us+0x22>
1c0019ba:	c602                	sw	zero,12(sp)
1c0019bc:	a021                	j	1c0019c4 <pi_time_wait_us+0x16>
1c0019be:	47b2                	lw	a5,12(sp)
1c0019c0:	0785                	addi	a5,a5,1
1c0019c2:	c63e                	sw	a5,12(sp)
1c0019c4:	47b2                	lw	a5,12(sp)
1c0019c6:	fea7cce3          	blt	a5,a0,1c0019be <pi_time_wait_us+0x10>
1c0019ca:	40f2                	lw	ra,28(sp)
1c0019cc:	6105                	addi	sp,sp,32
1c0019ce:	8082                	ret
1c0019d0:	3e800793          	li	a5,1000
1c0019d4:	02f55533          	divu	a0,a0,a5
1c0019d8:	a7dff0ef          	jal	ra,1c001454 <vTaskDelay>
1c0019dc:	b7fd                	j	1c0019ca <pi_time_wait_us+0x1c>

1c0019de <pi_task_release>:
1c0019de:	1141                	addi	sp,sp,-16
1c0019e0:	c606                	sw	ra,12(sp)
1c0019e2:	c422                	sw	s0,8(sp)
1c0019e4:	842a                	mv	s0,a0
1c0019e6:	5948                	lw	a0,52(a0)
1c0019e8:	c119                	beqz	a0,1c0019ee <pi_task_release+0x10>
1c0019ea:	5c5c                	lw	a5,60(s0)
1c0019ec:	9782                	jalr	a5
1c0019ee:	4785                	li	a5,1
1c0019f0:	04f40223          	sb	a5,68(s0)
1c0019f4:	40b2                	lw	ra,12(sp)
1c0019f6:	4422                	lw	s0,8(sp)
1c0019f8:	0141                	addi	sp,sp,16
1c0019fa:	8082                	ret

1c0019fc <pi_task_push_delayed_us>:
1c0019fc:	1141                	addi	sp,sp,-16
1c0019fe:	c606                	sw	ra,12(sp)
1c001a00:	852e                	mv	a0,a1
1c001a02:	3775                	jal	1c0019ae <pi_time_wait_us>
1c001a04:	300477f3          	csrrci	a5,mstatus,8
1c001a08:	30079073          	csrw	mstatus,a5
1c001a0c:	40b2                	lw	ra,12(sp)
1c001a0e:	0141                	addi	sp,sp,16
1c001a10:	8082                	ret

1c001a12 <__pi_task_push>:
1c001a12:	1141                	addi	sp,sp,-16
1c001a14:	c606                	sw	ra,12(sp)
1c001a16:	4581                	li	a1,0
1c001a18:	37d5                	jal	1c0019fc <pi_task_push_delayed_us>
1c001a1a:	40b2                	lw	ra,12(sp)
1c001a1c:	0141                	addi	sp,sp,16
1c001a1e:	8082                	ret

1c001a20 <__handle_clic_int>:
1c001a20:	7139                	addi	sp,sp,-64
1c001a22:	c006                	sw	ra,0(sp)
1c001a24:	c216                	sw	t0,4(sp)
1c001a26:	c41a                	sw	t1,8(sp)
1c001a28:	c61e                	sw	t2,12(sp)
1c001a2a:	c82a                	sw	a0,16(sp)
1c001a2c:	ca2e                	sw	a1,20(sp)
1c001a2e:	cc32                	sw	a2,24(sp)
1c001a30:	ce36                	sw	a3,28(sp)
1c001a32:	d03a                	sw	a4,32(sp)
1c001a34:	d23e                	sw	a5,36(sp)
1c001a36:	d442                	sw	a6,40(sp)
1c001a38:	d646                	sw	a7,44(sp)
1c001a3a:	d872                	sw	t3,48(sp)
1c001a3c:	da76                	sw	t4,52(sp)
1c001a3e:	dc7a                	sw	t5,56(sp)
1c001a40:	de7e                	sw	t6,60(sp)
1c001a42:	18c18293          	addi	t0,gp,396 # 1c008d78 <clic_isr_hook>
1c001a46:	0002a283          	lw	t0,0(t0) # 70000 <__heap_l2_shared_size+0x20>
1c001a4a:	9282                	jalr	t0
1c001a4c:	4082                	lw	ra,0(sp)
1c001a4e:	4292                	lw	t0,4(sp)
1c001a50:	4322                	lw	t1,8(sp)
1c001a52:	43b2                	lw	t2,12(sp)
1c001a54:	4542                	lw	a0,16(sp)
1c001a56:	45d2                	lw	a1,20(sp)
1c001a58:	4662                	lw	a2,24(sp)
1c001a5a:	46f2                	lw	a3,28(sp)
1c001a5c:	5702                	lw	a4,32(sp)
1c001a5e:	5792                	lw	a5,36(sp)
1c001a60:	5822                	lw	a6,40(sp)
1c001a62:	58b2                	lw	a7,44(sp)
1c001a64:	5e42                	lw	t3,48(sp)
1c001a66:	5ed2                	lw	t4,52(sp)
1c001a68:	5f62                	lw	t5,56(sp)
1c001a6a:	5ff2                	lw	t6,60(sp)
1c001a6c:	6121                	addi	sp,sp,64
1c001a6e:	30200073          	mret

1c001a72 <clic_setup_mtvec>:
1c001a72:	00000297          	auipc	t0,0x0
1c001a76:	58e28293          	addi	t0,t0,1422 # 1c002000 <__clic_vector_table>
1c001a7a:	0012e293          	ori	t0,t0,1
1c001a7e:	30529073          	csrw	mtvec,t0
1c001a82:	8082                	ret

1c001a84 <clic_setup_mtvt>:
1c001a84:	00000297          	auipc	t0,0x0
1c001a88:	57c28293          	addi	t0,t0,1404 # 1c002000 <__clic_vector_table>
1c001a8c:	0012e293          	ori	t0,t0,1
1c001a90:	30729073          	csrw	0x307,t0
1c001a94:	8082                	ret
	...

1c001c00 <default_exception_handler>:
1c001c00:	a001                	j	1c001c00 <default_exception_handler>

1c001c02 <software_handler>:
1c001c02:	a001                	j	1c001c02 <software_handler>

1c001c04 <timer_handler>:
1c001c04:	a001                	j	1c001c04 <timer_handler>

1c001c06 <external_handler>:
1c001c06:	a001                	j	1c001c06 <external_handler>

1c001c08 <__no_irq_handler>:
1c001c08:	a001                	j	1c001c08 <__no_irq_handler>
1c001c0a:	00000013          	nop
1c001c0e:	00000013          	nop
1c001c12:	00000013          	nop
1c001c16:	00000013          	nop
1c001c1a:	00000013          	nop
1c001c1e:	00000013          	nop
1c001c22:	00000013          	nop
1c001c26:	00000013          	nop
1c001c2a:	00000013          	nop
1c001c2e:	00000013          	nop
1c001c32:	00000013          	nop
1c001c36:	00000013          	nop
1c001c3a:	00000013          	nop
1c001c3e:	00000013          	nop
1c001c42:	00000013          	nop
1c001c46:	00000013          	nop
1c001c4a:	00000013          	nop
1c001c4e:	00000013          	nop
1c001c52:	00000013          	nop
1c001c56:	00000013          	nop
1c001c5a:	00000013          	nop
1c001c5e:	00000013          	nop
1c001c62:	00000013          	nop
1c001c66:	00000013          	nop
1c001c6a:	00000013          	nop
1c001c6e:	00000013          	nop
1c001c72:	00000013          	nop
1c001c76:	00000013          	nop
1c001c7a:	00000013          	nop
1c001c7e:	00000013          	nop
1c001c82:	00000013          	nop
1c001c86:	00000013          	nop
1c001c8a:	00000013          	nop
1c001c8e:	00000013          	nop
1c001c92:	00000013          	nop
1c001c96:	00000013          	nop
1c001c9a:	00000013          	nop
1c001c9e:	00000013          	nop
1c001ca2:	00000013          	nop
1c001ca6:	00000013          	nop
1c001caa:	00000013          	nop
1c001cae:	00000013          	nop
1c001cb2:	00000013          	nop
1c001cb6:	00000013          	nop
1c001cba:	00000013          	nop
1c001cbe:	00000013          	nop
1c001cc2:	00000013          	nop
1c001cc6:	00000013          	nop
1c001cca:	00000013          	nop
1c001cce:	00000013          	nop
1c001cd2:	00000013          	nop
1c001cd6:	00000013          	nop
1c001cda:	00000013          	nop
1c001cde:	00000013          	nop
1c001ce2:	00000013          	nop
1c001ce6:	00000013          	nop
1c001cea:	00000013          	nop
1c001cee:	00000013          	nop
1c001cf2:	00000013          	nop
1c001cf6:	00000013          	nop
1c001cfa:	00000013          	nop
1c001cfe:	00000013          	nop
1c001d02:	00000013          	nop
1c001d06:	00000013          	nop
1c001d0a:	00000013          	nop
1c001d0e:	00000013          	nop
1c001d12:	00000013          	nop
1c001d16:	00000013          	nop
1c001d1a:	00000013          	nop
1c001d1e:	00000013          	nop
1c001d22:	00000013          	nop
1c001d26:	00000013          	nop
1c001d2a:	00000013          	nop
1c001d2e:	00000013          	nop
1c001d32:	00000013          	nop
1c001d36:	00000013          	nop
1c001d3a:	00000013          	nop
1c001d3e:	00000013          	nop
1c001d42:	00000013          	nop
1c001d46:	00000013          	nop
1c001d4a:	00000013          	nop
1c001d4e:	00000013          	nop
1c001d52:	00000013          	nop
1c001d56:	00000013          	nop
1c001d5a:	00000013          	nop
1c001d5e:	00000013          	nop
1c001d62:	00000013          	nop
1c001d66:	00000013          	nop
1c001d6a:	00000013          	nop
1c001d6e:	00000013          	nop
1c001d72:	00000013          	nop
1c001d76:	00000013          	nop
1c001d7a:	00000013          	nop
1c001d7e:	00000013          	nop
1c001d82:	00000013          	nop
1c001d86:	00000013          	nop
1c001d8a:	00000013          	nop
1c001d8e:	00000013          	nop
1c001d92:	00000013          	nop
1c001d96:	00000013          	nop
1c001d9a:	00000013          	nop
1c001d9e:	00000013          	nop
1c001da2:	00000013          	nop
1c001da6:	00000013          	nop
1c001daa:	00000013          	nop
1c001dae:	00000013          	nop
1c001db2:	00000013          	nop
1c001db6:	00000013          	nop
1c001dba:	00000013          	nop
1c001dbe:	00000013          	nop
1c001dc2:	00000013          	nop
1c001dc6:	00000013          	nop
1c001dca:	00000013          	nop
1c001dce:	00000013          	nop
1c001dd2:	00000013          	nop
1c001dd6:	00000013          	nop
1c001dda:	00000013          	nop
1c001dde:	00000013          	nop
1c001de2:	00000013          	nop
1c001de6:	00000013          	nop
1c001dea:	00000013          	nop
1c001dee:	00000013          	nop
1c001df2:	00000013          	nop
1c001df6:	00000013          	nop
1c001dfa:	00000013          	nop
1c001dfe:	00000013          	nop
1c001e02:	00000013          	nop
1c001e06:	00000013          	nop
1c001e0a:	00000013          	nop
1c001e0e:	00000013          	nop
1c001e12:	00000013          	nop
1c001e16:	00000013          	nop
1c001e1a:	00000013          	nop
1c001e1e:	00000013          	nop
1c001e22:	00000013          	nop
1c001e26:	00000013          	nop
1c001e2a:	00000013          	nop
1c001e2e:	00000013          	nop
1c001e32:	00000013          	nop
1c001e36:	00000013          	nop
1c001e3a:	00000013          	nop
1c001e3e:	00000013          	nop
1c001e42:	00000013          	nop
1c001e46:	00000013          	nop
1c001e4a:	00000013          	nop
1c001e4e:	00000013          	nop
1c001e52:	00000013          	nop
1c001e56:	00000013          	nop
1c001e5a:	00000013          	nop
1c001e5e:	00000013          	nop
1c001e62:	00000013          	nop
1c001e66:	00000013          	nop
1c001e6a:	00000013          	nop
1c001e6e:	00000013          	nop
1c001e72:	00000013          	nop
1c001e76:	00000013          	nop
1c001e7a:	00000013          	nop
1c001e7e:	00000013          	nop
1c001e82:	00000013          	nop
1c001e86:	00000013          	nop
1c001e8a:	00000013          	nop
1c001e8e:	00000013          	nop
1c001e92:	00000013          	nop
1c001e96:	00000013          	nop
1c001e9a:	00000013          	nop
1c001e9e:	00000013          	nop
1c001ea2:	00000013          	nop
1c001ea6:	00000013          	nop
1c001eaa:	00000013          	nop
1c001eae:	00000013          	nop
1c001eb2:	00000013          	nop
1c001eb6:	00000013          	nop
1c001eba:	00000013          	nop
1c001ebe:	00000013          	nop
1c001ec2:	00000013          	nop
1c001ec6:	00000013          	nop
1c001eca:	00000013          	nop
1c001ece:	00000013          	nop
1c001ed2:	00000013          	nop
1c001ed6:	00000013          	nop
1c001eda:	00000013          	nop
1c001ede:	00000013          	nop
1c001ee2:	00000013          	nop
1c001ee6:	00000013          	nop
1c001eea:	00000013          	nop
1c001eee:	00000013          	nop
1c001ef2:	00000013          	nop
1c001ef6:	00000013          	nop
1c001efa:	00000013          	nop
1c001efe:	00000013          	nop
1c001f02:	00000013          	nop
1c001f06:	00000013          	nop
1c001f0a:	00000013          	nop
1c001f0e:	00000013          	nop
1c001f12:	00000013          	nop
1c001f16:	00000013          	nop
1c001f1a:	00000013          	nop
1c001f1e:	00000013          	nop
1c001f22:	00000013          	nop
1c001f26:	00000013          	nop
1c001f2a:	00000013          	nop
1c001f2e:	00000013          	nop
1c001f32:	00000013          	nop
1c001f36:	00000013          	nop
1c001f3a:	00000013          	nop
1c001f3e:	00000013          	nop
1c001f42:	00000013          	nop
1c001f46:	00000013          	nop
1c001f4a:	00000013          	nop
1c001f4e:	00000013          	nop
1c001f52:	00000013          	nop
1c001f56:	00000013          	nop
1c001f5a:	00000013          	nop
1c001f5e:	00000013          	nop
1c001f62:	00000013          	nop
1c001f66:	00000013          	nop
1c001f6a:	00000013          	nop
1c001f6e:	00000013          	nop
1c001f72:	00000013          	nop
1c001f76:	00000013          	nop
1c001f7a:	00000013          	nop
1c001f7e:	00000013          	nop
1c001f82:	00000013          	nop
1c001f86:	00000013          	nop
1c001f8a:	00000013          	nop
1c001f8e:	00000013          	nop
1c001f92:	00000013          	nop
1c001f96:	00000013          	nop
1c001f9a:	00000013          	nop
1c001f9e:	00000013          	nop
1c001fa2:	00000013          	nop
1c001fa6:	00000013          	nop
1c001faa:	00000013          	nop
1c001fae:	00000013          	nop
1c001fb2:	00000013          	nop
1c001fb6:	00000013          	nop
1c001fba:	00000013          	nop
1c001fbe:	00000013          	nop
1c001fc2:	00000013          	nop
1c001fc6:	00000013          	nop
1c001fca:	00000013          	nop
1c001fce:	00000013          	nop
1c001fd2:	00000013          	nop
1c001fd6:	00000013          	nop
1c001fda:	00000013          	nop
1c001fde:	00000013          	nop
1c001fe2:	00000013          	nop
1c001fe6:	00000013          	nop
1c001fea:	00000013          	nop
1c001fee:	00000013          	nop
1c001ff2:	00000013          	nop
1c001ff6:	00000013          	nop
1c001ffa:	00000013          	nop
1c001ffe:	0001                	nop

1c002000 <__clic_vector_table>:
1c002000:	c01ff06f          	j	1c001c00 <default_exception_handler>
1c002004:	c05ff06f          	j	1c001c08 <__no_irq_handler>
1c002008:	c01ff06f          	j	1c001c08 <__no_irq_handler>
1c00200c:	bf7ff06f          	j	1c001c02 <software_handler>
1c002010:	bf9ff06f          	j	1c001c08 <__no_irq_handler>
1c002014:	bf5ff06f          	j	1c001c08 <__no_irq_handler>
1c002018:	bf1ff06f          	j	1c001c08 <__no_irq_handler>
1c00201c:	be9ff06f          	j	1c001c04 <timer_handler>
1c002020:	be9ff06f          	j	1c001c08 <__no_irq_handler>
1c002024:	be5ff06f          	j	1c001c08 <__no_irq_handler>
1c002028:	be1ff06f          	j	1c001c08 <__no_irq_handler>
1c00202c:	bdbff06f          	j	1c001c06 <external_handler>
1c002030:	bd9ff06f          	j	1c001c08 <__no_irq_handler>
1c002034:	bd5ff06f          	j	1c001c08 <__no_irq_handler>
1c002038:	bd1ff06f          	j	1c001c08 <__no_irq_handler>
1c00203c:	bcdff06f          	j	1c001c08 <__no_irq_handler>
1c002040:	bc9ff06f          	j	1c001c08 <__no_irq_handler>
1c002044:	bc5ff06f          	j	1c001c08 <__no_irq_handler>
1c002048:	bc1ff06f          	j	1c001c08 <__no_irq_handler>
1c00204c:	bbdff06f          	j	1c001c08 <__no_irq_handler>
1c002050:	bb9ff06f          	j	1c001c08 <__no_irq_handler>
1c002054:	bb5ff06f          	j	1c001c08 <__no_irq_handler>
1c002058:	bb1ff06f          	j	1c001c08 <__no_irq_handler>
1c00205c:	badff06f          	j	1c001c08 <__no_irq_handler>
1c002060:	ba9ff06f          	j	1c001c08 <__no_irq_handler>
1c002064:	ba5ff06f          	j	1c001c08 <__no_irq_handler>
1c002068:	ba1ff06f          	j	1c001c08 <__no_irq_handler>
1c00206c:	b9dff06f          	j	1c001c08 <__no_irq_handler>
1c002070:	b99ff06f          	j	1c001c08 <__no_irq_handler>
1c002074:	b95ff06f          	j	1c001c08 <__no_irq_handler>
1c002078:	b91ff06f          	j	1c001c08 <__no_irq_handler>
1c00207c:	b8dff06f          	j	1c001c08 <__no_irq_handler>
1c002080:	9a1ff06f          	j	1c001a20 <__handle_clic_int>
	...

1c0023fa <exit_fail>:
1c0023fa:	1141                	addi	sp,sp,-16
1c0023fc:	c606                	sw	ra,12(sp)
1c0023fe:	4505                	li	a0,1
1c002400:	5f8000ef          	jal	ra,1c0029f8 <exit>

1c002404 <complete_msg>:
1c002404:	77c1                	lui	a5,0xffff0
1c002406:	01878713          	addi	a4,a5,24 # ffff0018 <__heap_l2_shared_start+0xe3fdfff8>
1c00240a:	c308                	sw	a0,0(a4)
1c00240c:	00478693          	addi	a3,a5,4
1c002410:	4701                	li	a4,0
1c002412:	c298                	sw	a4,0(a3)
1c002414:	0a478793          	addi	a5,a5,164
1c002418:	c38c                	sw	a1,0(a5)
1c00241a:	8082                	ret

1c00241c <callee_scmi_handler>:
1c00241c:	1101                	addi	sp,sp,-32
1c00241e:	ce06                	sw	ra,28(sp)
1c002420:	cc22                	sw	s0,24(sp)
1c002422:	ca26                	sw	s1,20(sp)
1c002424:	c84a                	sw	s2,16(sp)
1c002426:	c64e                	sw	s3,12(sp)
1c002428:	c452                	sw	s4,8(sp)
1c00242a:	c256                	sw	s5,4(sp)
1c00242c:	c05a                	sw	s6,0(sp)
1c00242e:	4985                	li	s3,1
1c002430:	1b2004b7          	lui	s1,0x1b200
1c002434:	41848a13          	addi	s4,s1,1048 # 1b200418 <__heap_l1_cluster_start+0xb2003f8>
1c002438:	013a2023          	sw	s3,0(s4)
1c00243c:	7441                	lui	s0,0xffff0
1c00243e:	0a040793          	addi	a5,s0,160 # ffff00a0 <__heap_l2_shared_start+0xe3fe0080>
1c002442:	0007aa83          	lw	s5,0(a5)
1c002446:	4b01                	li	s6,0
1c002448:	0167a023          	sw	s6,0(a5)
1c00244c:	01c40913          	addi	s2,s0,28
1c002450:	00092903          	lw	s2,0(s2)
1c002454:	02040793          	addi	a5,s0,32
1c002458:	439c                	lw	a5,0(a5)
1c00245a:	02440793          	addi	a5,s0,36
1c00245e:	439c                	lw	a5,0(a5)
1c002460:	85ca                	mv	a1,s2
1c002462:	1c008537          	lui	a0,0x1c008
1c002466:	26c50513          	addi	a0,a0,620 # 1c00826c <__func__.1889+0xc>
1c00246a:	31d000ef          	jal	ra,1c002f86 <iprintf>
1c00246e:	40048493          	addi	s1,s1,1024
1c002472:	0164a023          	sw	s6,0(s1)
1c002476:	013a2023          	sw	s3,0(s4)
1c00247a:	01840513          	addi	a0,s0,24
1c00247e:	4108                	lw	a0,0(a0)
1c002480:	00a55793          	srli	a5,a0,0xa
1c002484:	ee87b7b3          	p.bclr	a5,a5,23,8
1c002488:	ee853733          	p.bclr	a4,a0,23,8
1c00248c:	46c1                	li	a3,16
1c00248e:	04d78463          	beq	a5,a3,1c0024d6 <callee_scmi_handler+0xba>
1c002492:	46c5                	li	a3,17
1c002494:	16d78863          	beq	a5,a3,1c002604 <callee_scmi_handler+0x1e8>
1c002498:	46cd                	li	a3,19
1c00249a:	20d78663          	beq	a5,a3,1c0026a6 <callee_scmi_handler+0x28a>
1c00249e:	46d1                	li	a3,20
1c0024a0:	34d78463          	beq	a5,a3,1c0027e8 <callee_scmi_handler+0x3cc>
1c0024a4:	77c1                	lui	a5,0xffff0
1c0024a6:	01c78693          	addi	a3,a5,28 # ffff001c <__heap_l2_shared_start+0xe3fdfffc>
1c0024aa:	577d                	li	a4,-1
1c0024ac:	c298                	sw	a4,0(a3)
1c0024ae:	02078793          	addi	a5,a5,32
1c0024b2:	4745                	li	a4,17
1c0024b4:	c398                	sw	a4,0(a5)
1c0024b6:	4701                	li	a4,0
1c0024b8:	1b2007b7          	lui	a5,0x1b200
1c0024bc:	40078793          	addi	a5,a5,1024 # 1b200400 <__heap_l1_cluster_start+0xb2003e0>
1c0024c0:	c398                	sw	a4,0(a5)
1c0024c2:	40f2                	lw	ra,28(sp)
1c0024c4:	4462                	lw	s0,24(sp)
1c0024c6:	44d2                	lw	s1,20(sp)
1c0024c8:	4942                	lw	s2,16(sp)
1c0024ca:	49b2                	lw	s3,12(sp)
1c0024cc:	4a22                	lw	s4,8(sp)
1c0024ce:	4a92                	lw	s5,4(sp)
1c0024d0:	4b02                	lw	s6,0(sp)
1c0024d2:	6105                	addi	sp,sp,32
1c0024d4:	8082                	ret
1c0024d6:	c329                	beqz	a4,1c002518 <callee_scmi_handler+0xfc>
1c0024d8:	04172f63          	p.beqimm	a4,1,1c002536 <callee_scmi_handler+0x11a>
1c0024dc:	06372d63          	p.beqimm	a4,3,1c002556 <callee_scmi_handler+0x13a>
1c0024e0:	08472b63          	p.beqimm	a4,4,1c002576 <callee_scmi_handler+0x15a>
1c0024e4:	0a572963          	p.beqimm	a4,5,1c002596 <callee_scmi_handler+0x17a>
1c0024e8:	0c672663          	p.beqimm	a4,6,1c0025b4 <callee_scmi_handler+0x198>
1c0024ec:	fc7735e3          	p.bneimm	a4,7,1c0024b6 <callee_scmi_handler+0x9a>
1c0024f0:	77c1                	lui	a5,0xffff0
1c0024f2:	01c78693          	addi	a3,a5,28 # ffff001c <__heap_l2_shared_start+0xe3fdfffc>
1c0024f6:	4701                	li	a4,0
1c0024f8:	c298                	sw	a4,0(a3)
1c0024fa:	02078693          	addi	a3,a5,32
1c0024fe:	4705                	li	a4,1
1c002500:	c298                	sw	a4,0(a3)
1c002502:	02478693          	addi	a3,a5,36
1c002506:	04300713          	li	a4,67
1c00250a:	c298                	sw	a4,0(a3)
1c00250c:	07d1                	addi	a5,a5,20
1c00250e:	4741                	li	a4,16
1c002510:	c398                	sw	a4,0(a5)
1c002512:	85d6                	mv	a1,s5
1c002514:	3dc5                	jal	1c002404 <complete_msg>
1c002516:	b745                	j	1c0024b6 <callee_scmi_handler+0x9a>
1c002518:	77c1                	lui	a5,0xffff0
1c00251a:	01c78693          	addi	a3,a5,28 # ffff001c <__heap_l2_shared_start+0xe3fdfffc>
1c00251e:	c298                	sw	a4,0(a3)
1c002520:	02078693          	addi	a3,a5,32
1c002524:	00020737          	lui	a4,0x20
1c002528:	c298                	sw	a4,0(a3)
1c00252a:	07d1                	addi	a5,a5,20
1c00252c:	4731                	li	a4,12
1c00252e:	c398                	sw	a4,0(a5)
1c002530:	85d6                	mv	a1,s5
1c002532:	3dc9                	jal	1c002404 <complete_msg>
1c002534:	b749                	j	1c0024b6 <callee_scmi_handler+0x9a>
1c002536:	77c1                	lui	a5,0xffff0
1c002538:	01c78693          	addi	a3,a5,28 # ffff001c <__heap_l2_shared_start+0xe3fdfffc>
1c00253c:	4701                	li	a4,0
1c00253e:	c298                	sw	a4,0(a3)
1c002540:	02078693          	addi	a3,a5,32
1c002544:	10100713          	li	a4,257
1c002548:	c298                	sw	a4,0(a3)
1c00254a:	07d1                	addi	a5,a5,20
1c00254c:	4731                	li	a4,12
1c00254e:	c398                	sw	a4,0(a5)
1c002550:	85d6                	mv	a1,s5
1c002552:	3d4d                	jal	1c002404 <complete_msg>
1c002554:	b78d                	j	1c0024b6 <callee_scmi_handler+0x9a>
1c002556:	77c1                	lui	a5,0xffff0
1c002558:	01c78693          	addi	a3,a5,28 # ffff001c <__heap_l2_shared_start+0xe3fdfffc>
1c00255c:	4701                	li	a4,0
1c00255e:	c298                	sw	a4,0(a3)
1c002560:	02078693          	addi	a3,a5,32
1c002564:	04100713          	li	a4,65
1c002568:	c298                	sw	a4,0(a3)
1c00256a:	07d1                	addi	a5,a5,20
1c00256c:	4731                	li	a4,12
1c00256e:	c398                	sw	a4,0(a5)
1c002570:	85d6                	mv	a1,s5
1c002572:	3d49                	jal	1c002404 <complete_msg>
1c002574:	b789                	j	1c0024b6 <callee_scmi_handler+0x9a>
1c002576:	77c1                	lui	a5,0xffff0
1c002578:	01c78693          	addi	a3,a5,28 # ffff001c <__heap_l2_shared_start+0xe3fdfffc>
1c00257c:	4701                	li	a4,0
1c00257e:	c298                	sw	a4,0(a3)
1c002580:	02078693          	addi	a3,a5,32
1c002584:	04100713          	li	a4,65
1c002588:	c298                	sw	a4,0(a3)
1c00258a:	07d1                	addi	a5,a5,20
1c00258c:	4731                	li	a4,12
1c00258e:	c398                	sw	a4,0(a5)
1c002590:	85d6                	mv	a1,s5
1c002592:	3d8d                	jal	1c002404 <complete_msg>
1c002594:	b70d                	j	1c0024b6 <callee_scmi_handler+0x9a>
1c002596:	77c1                	lui	a5,0xffff0
1c002598:	01c78693          	addi	a3,a5,28 # ffff001c <__heap_l2_shared_start+0xe3fdfffc>
1c00259c:	4701                	li	a4,0
1c00259e:	c298                	sw	a4,0(a3)
1c0025a0:	02078693          	addi	a3,a5,32
1c0025a4:	4705                	li	a4,1
1c0025a6:	c298                	sw	a4,0(a3)
1c0025a8:	07d1                	addi	a5,a5,20
1c0025aa:	4731                	li	a4,12
1c0025ac:	c398                	sw	a4,0(a5)
1c0025ae:	85d6                	mv	a1,s5
1c0025b0:	3d91                	jal	1c002404 <complete_msg>
1c0025b2:	b711                	j	1c0024b6 <callee_scmi_handler+0x9a>
1c0025b4:	4701                	li	a4,0
1c0025b6:	77c1                	lui	a5,0xffff0
1c0025b8:	07f1                	addi	a5,a5,28
1c0025ba:	c398                	sw	a4,0(a5)
1c0025bc:	d681a783          	lw	a5,-664(gp) # 1c008954 <first>
1c0025c0:	e795                	bnez	a5,1c0025ec <callee_scmi_handler+0x1d0>
1c0025c2:	4705                	li	a4,1
1c0025c4:	d6e1a423          	sw	a4,-664(gp) # 1c008954 <first>
1c0025c8:	77c1                	lui	a5,0xffff0
1c0025ca:	02078693          	addi	a3,a5,32 # ffff0020 <__heap_l2_shared_start+0xe3fe0000>
1c0025ce:	470d                	li	a4,3
1c0025d0:	c298                	sw	a4,0(a3)
1c0025d2:	02478693          	addi	a3,a5,36
1c0025d6:	00141737          	lui	a4,0x141
1c0025da:	31170713          	addi	a4,a4,785 # 141311 <__heap_l2_shared_size+0xd1331>
1c0025de:	c298                	sw	a4,0(a3)
1c0025e0:	07d1                	addi	a5,a5,20
1c0025e2:	4741                	li	a4,16
1c0025e4:	c398                	sw	a4,0(a5)
1c0025e6:	85d6                	mv	a1,s5
1c0025e8:	3d31                	jal	1c002404 <complete_msg>
1c0025ea:	b5f1                	j	1c0024b6 <callee_scmi_handler+0x9a>
1c0025ec:	4701                	li	a4,0
1c0025ee:	77c1                	lui	a5,0xffff0
1c0025f0:	02078693          	addi	a3,a5,32 # ffff0020 <__heap_l2_shared_start+0xe3fe0000>
1c0025f4:	c298                	sw	a4,0(a3)
1c0025f6:	02478693          	addi	a3,a5,36
1c0025fa:	c298                	sw	a4,0(a3)
1c0025fc:	07d1                	addi	a5,a5,20
1c0025fe:	4721                	li	a4,8
1c002600:	c398                	sw	a4,0(a5)
1c002602:	b7d5                	j	1c0025e6 <callee_scmi_handler+0x1ca>
1c002604:	c70d                	beqz	a4,1c00262e <callee_scmi_handler+0x212>
1c002606:	04172363          	p.beqimm	a4,1,1c00264c <callee_scmi_handler+0x230>
1c00260a:	06372963          	p.beqimm	a4,3,1c00267c <callee_scmi_handler+0x260>
1c00260e:	ea5734e3          	p.bneimm	a4,5,1c0024b6 <callee_scmi_handler+0x9a>
1c002612:	4701                	li	a4,0
1c002614:	77c1                	lui	a5,0xffff0
1c002616:	01c78693          	addi	a3,a5,28 # ffff001c <__heap_l2_shared_start+0xe3fdfffc>
1c00261a:	c298                	sw	a4,0(a3)
1c00261c:	02478693          	addi	a3,a5,36
1c002620:	c298                	sw	a4,0(a3)
1c002622:	07d1                	addi	a5,a5,20
1c002624:	4731                	li	a4,12
1c002626:	c398                	sw	a4,0(a5)
1c002628:	85d6                	mv	a1,s5
1c00262a:	3be9                	jal	1c002404 <complete_msg>
1c00262c:	b569                	j	1c0024b6 <callee_scmi_handler+0x9a>
1c00262e:	77c1                	lui	a5,0xffff0
1c002630:	01c78693          	addi	a3,a5,28 # ffff001c <__heap_l2_shared_start+0xe3fdfffc>
1c002634:	c298                	sw	a4,0(a3)
1c002636:	02078693          	addi	a3,a5,32
1c00263a:	00030737          	lui	a4,0x30
1c00263e:	c298                	sw	a4,0(a3)
1c002640:	07d1                	addi	a5,a5,20
1c002642:	4731                	li	a4,12
1c002644:	c398                	sw	a4,0(a5)
1c002646:	85d6                	mv	a1,s5
1c002648:	3b75                	jal	1c002404 <complete_msg>
1c00264a:	b5b5                	j	1c0024b6 <callee_scmi_handler+0x9a>
1c00264c:	4701                	li	a4,0
1c00264e:	77c1                	lui	a5,0xffff0
1c002650:	01c78693          	addi	a3,a5,28 # ffff001c <__heap_l2_shared_start+0xe3fdfffc>
1c002654:	c298                	sw	a4,0(a3)
1c002656:	02078613          	addi	a2,a5,32
1c00265a:	4685                	li	a3,1
1c00265c:	c214                	sw	a3,0(a2)
1c00265e:	02478693          	addi	a3,a5,36
1c002662:	c298                	sw	a4,0(a3)
1c002664:	02878693          	addi	a3,a5,40
1c002668:	c298                	sw	a4,0(a3)
1c00266a:	02c78693          	addi	a3,a5,44
1c00266e:	c298                	sw	a4,0(a3)
1c002670:	07d1                	addi	a5,a5,20
1c002672:	4761                	li	a4,24
1c002674:	c398                	sw	a4,0(a5)
1c002676:	85d6                	mv	a1,s5
1c002678:	3371                	jal	1c002404 <complete_msg>
1c00267a:	bd35                	j	1c0024b6 <callee_scmi_handler+0x9a>
1c00267c:	77c1                	lui	a5,0xffff0
1c00267e:	01c78693          	addi	a3,a5,28 # ffff001c <__heap_l2_shared_start+0xe3fdfffc>
1c002682:	4701                	li	a4,0
1c002684:	c298                	sw	a4,0(a3)
1c002686:	02078693          	addi	a3,a5,32
1c00268a:	40000737          	lui	a4,0x40000
1c00268e:	c298                	sw	a4,0(a3)
1c002690:	02478693          	addi	a3,a5,36
1c002694:	04100713          	li	a4,65
1c002698:	c298                	sw	a4,0(a3)
1c00269a:	07d1                	addi	a5,a5,20
1c00269c:	4741                	li	a4,16
1c00269e:	c398                	sw	a4,0(a5)
1c0026a0:	85d6                	mv	a1,s5
1c0026a2:	338d                	jal	1c002404 <complete_msg>
1c0026a4:	bd09                	j	1c0024b6 <callee_scmi_handler+0x9a>
1c0026a6:	cb15                	beqz	a4,1c0026da <callee_scmi_handler+0x2be>
1c0026a8:	04172863          	p.beqimm	a4,1,1c0026f8 <callee_scmi_handler+0x2dc>
1c0026ac:	06372f63          	p.beqimm	a4,3,1c00272a <callee_scmi_handler+0x30e>
1c0026b0:	0a472e63          	p.beqimm	a4,4,1c00276c <callee_scmi_handler+0x350>
1c0026b4:	10772b63          	p.beqimm	a4,7,1c0027ca <callee_scmi_handler+0x3ae>
1c0026b8:	de873fe3          	p.bneimm	a4,8,1c0024b6 <callee_scmi_handler+0x9a>
1c0026bc:	77c1                	lui	a5,0xffff0
1c0026be:	01c78693          	addi	a3,a5,28 # ffff001c <__heap_l2_shared_start+0xe3fdfffc>
1c0026c2:	4701                	li	a4,0
1c0026c4:	c298                	sw	a4,0(a3)
1c0026c6:	02078693          	addi	a3,a5,32
1c0026ca:	4705                	li	a4,1
1c0026cc:	c298                	sw	a4,0(a3)
1c0026ce:	07d1                	addi	a5,a5,20
1c0026d0:	4731                	li	a4,12
1c0026d2:	c398                	sw	a4,0(a5)
1c0026d4:	85d6                	mv	a1,s5
1c0026d6:	333d                	jal	1c002404 <complete_msg>
1c0026d8:	bbf9                	j	1c0024b6 <callee_scmi_handler+0x9a>
1c0026da:	77c1                	lui	a5,0xffff0
1c0026dc:	01c78693          	addi	a3,a5,28 # ffff001c <__heap_l2_shared_start+0xe3fdfffc>
1c0026e0:	c298                	sw	a4,0(a3)
1c0026e2:	02078693          	addi	a3,a5,32
1c0026e6:	00030737          	lui	a4,0x30
1c0026ea:	c298                	sw	a4,0(a3)
1c0026ec:	07d1                	addi	a5,a5,20
1c0026ee:	4731                	li	a4,12
1c0026f0:	c398                	sw	a4,0(a5)
1c0026f2:	85d6                	mv	a1,s5
1c0026f4:	3b01                	jal	1c002404 <complete_msg>
1c0026f6:	b3c1                	j	1c0024b6 <callee_scmi_handler+0x9a>
1c0026f8:	4701                	li	a4,0
1c0026fa:	77c1                	lui	a5,0xffff0
1c0026fc:	01c78693          	addi	a3,a5,28 # ffff001c <__heap_l2_shared_start+0xe3fdfffc>
1c002700:	c298                	sw	a4,0(a3)
1c002702:	02078613          	addi	a2,a5,32
1c002706:	66c1                	lui	a3,0x10
1c002708:	0685                	addi	a3,a3,1
1c00270a:	c214                	sw	a3,0(a2)
1c00270c:	02478693          	addi	a3,a5,36
1c002710:	c298                	sw	a4,0(a3)
1c002712:	02878693          	addi	a3,a5,40
1c002716:	c298                	sw	a4,0(a3)
1c002718:	02c78693          	addi	a3,a5,44
1c00271c:	c298                	sw	a4,0(a3)
1c00271e:	07d1                	addi	a5,a5,20
1c002720:	4761                	li	a4,24
1c002722:	c398                	sw	a4,0(a5)
1c002724:	85d6                	mv	a1,s5
1c002726:	39f9                	jal	1c002404 <complete_msg>
1c002728:	b379                	j	1c0024b6 <callee_scmi_handler+0x9a>
1c00272a:	77c1                	lui	a5,0xffff0
1c00272c:	01c78693          	addi	a3,a5,28 # ffff001c <__heap_l2_shared_start+0xe3fdfffc>
1c002730:	4701                	li	a4,0
1c002732:	c298                	sw	a4,0(a3)
1c002734:	02078693          	addi	a3,a5,32
1c002738:	40000737          	lui	a4,0x40000
1c00273c:	c298                	sw	a4,0(a3)
1c00273e:	02478693          	addi	a3,a5,36
1c002742:	3e800713          	li	a4,1000
1c002746:	c298                	sw	a4,0(a3)
1c002748:	4705                	li	a4,1
1c00274a:	02878693          	addi	a3,a5,40
1c00274e:	c298                	sw	a4,0(a3)
1c002750:	02c78693          	addi	a3,a5,44
1c002754:	c298                	sw	a4,0(a3)
1c002756:	03078693          	addi	a3,a5,48
1c00275a:	04100713          	li	a4,65
1c00275e:	c298                	sw	a4,0(a3)
1c002760:	07d1                	addi	a5,a5,20
1c002762:	4771                	li	a4,28
1c002764:	c398                	sw	a4,0(a5)
1c002766:	85d6                	mv	a1,s5
1c002768:	3971                	jal	1c002404 <complete_msg>
1c00276a:	b3b1                	j	1c0024b6 <callee_scmi_handler+0x9a>
1c00276c:	77c1                	lui	a5,0xffff0
1c00276e:	01c78693          	addi	a3,a5,28 # ffff001c <__heap_l2_shared_start+0xe3fdfffc>
1c002772:	4701                	li	a4,0
1c002774:	c298                	sw	a4,0(a3)
1c002776:	468d                	li	a3,3
1c002778:	02078713          	addi	a4,a5,32
1c00277c:	c314                	sw	a3,0(a4)
1c00277e:	4705                	li	a4,1
1c002780:	02478613          	addi	a2,a5,36
1c002784:	c218                	sw	a4,0(a2)
1c002786:	02878613          	addi	a2,a5,40
1c00278a:	c218                	sw	a4,0(a2)
1c00278c:	1f400713          	li	a4,500
1c002790:	02c78613          	addi	a2,a5,44
1c002794:	c218                	sw	a4,0(a2)
1c002796:	4609                	li	a2,2
1c002798:	03078593          	addi	a1,a5,48
1c00279c:	c190                	sw	a2,0(a1)
1c00279e:	03478593          	addi	a1,a5,52
1c0027a2:	c190                	sw	a2,0(a1)
1c0027a4:	03878613          	addi	a2,a5,56
1c0027a8:	c218                	sw	a4,0(a2)
1c0027aa:	03c78613          	addi	a2,a5,60
1c0027ae:	c214                	sw	a3,0(a2)
1c0027b0:	04078613          	addi	a2,a5,64
1c0027b4:	c214                	sw	a3,0(a2)
1c0027b6:	04478693          	addi	a3,a5,68
1c0027ba:	c298                	sw	a4,0(a3)
1c0027bc:	07d1                	addi	a5,a5,20
1c0027be:	03000713          	li	a4,48
1c0027c2:	c398                	sw	a4,0(a5)
1c0027c4:	85d6                	mv	a1,s5
1c0027c6:	393d                	jal	1c002404 <complete_msg>
1c0027c8:	b1fd                	j	1c0024b6 <callee_scmi_handler+0x9a>
1c0027ca:	77c1                	lui	a5,0xffff0
1c0027cc:	01c78693          	addi	a3,a5,28 # ffff001c <__heap_l2_shared_start+0xe3fdfffc>
1c0027d0:	4701                	li	a4,0
1c0027d2:	c298                	sw	a4,0(a3)
1c0027d4:	07d1                	addi	a5,a5,20
1c0027d6:	4721                	li	a4,8
1c0027d8:	c398                	sw	a4,0(a5)
1c0027da:	1c0087b7          	lui	a5,0x1c008
1c0027de:	4527a823          	sw	s2,1104(a5) # 1c008450 <ft>
1c0027e2:	85d6                	mv	a1,s5
1c0027e4:	3105                	jal	1c002404 <complete_msg>
1c0027e6:	b9c1                	j	1c0024b6 <callee_scmi_handler+0x9a>
1c0027e8:	cf0d                	beqz	a4,1c002822 <callee_scmi_handler+0x406>
1c0027ea:	04172c63          	p.beqimm	a4,1,1c002842 <callee_scmi_handler+0x426>
1c0027ee:	06372b63          	p.beqimm	a4,3,1c002864 <callee_scmi_handler+0x448>
1c0027f2:	0a472363          	p.beqimm	a4,4,1c002898 <callee_scmi_handler+0x47c>
1c0027f6:	cc6730e3          	p.bneimm	a4,6,1c0024b6 <callee_scmi_handler+0x9a>
1c0027fa:	4701                	li	a4,0
1c0027fc:	77c1                	lui	a5,0xffff0
1c0027fe:	01c78693          	addi	a3,a5,28 # ffff001c <__heap_l2_shared_start+0xe3fdfffc>
1c002802:	c298                	sw	a4,0(a3)
1c002804:	02078613          	addi	a2,a5,32
1c002808:	3e800693          	li	a3,1000
1c00280c:	c214                	sw	a3,0(a2)
1c00280e:	02478693          	addi	a3,a5,36
1c002812:	c298                	sw	a4,0(a3)
1c002814:	07d1                	addi	a5,a5,20
1c002816:	4741                	li	a4,16
1c002818:	c398                	sw	a4,0(a5)
1c00281a:	85d6                	mv	a1,s5
1c00281c:	be9ff0ef          	jal	ra,1c002404 <complete_msg>
1c002820:	b959                	j	1c0024b6 <callee_scmi_handler+0x9a>
1c002822:	77c1                	lui	a5,0xffff0
1c002824:	01c78693          	addi	a3,a5,28 # ffff001c <__heap_l2_shared_start+0xe3fdfffc>
1c002828:	c298                	sw	a4,0(a3)
1c00282a:	02078693          	addi	a3,a5,32
1c00282e:	00020737          	lui	a4,0x20
1c002832:	c298                	sw	a4,0(a3)
1c002834:	07d1                	addi	a5,a5,20
1c002836:	4731                	li	a4,12
1c002838:	c398                	sw	a4,0(a5)
1c00283a:	85d6                	mv	a1,s5
1c00283c:	bc9ff0ef          	jal	ra,1c002404 <complete_msg>
1c002840:	b99d                	j	1c0024b6 <callee_scmi_handler+0x9a>
1c002842:	77c1                	lui	a5,0xffff0
1c002844:	01c78693          	addi	a3,a5,28 # ffff001c <__heap_l2_shared_start+0xe3fdfffc>
1c002848:	4701                	li	a4,0
1c00284a:	c298                	sw	a4,0(a3)
1c00284c:	02078693          	addi	a3,a5,32
1c002850:	6741                	lui	a4,0x10
1c002852:	0705                	addi	a4,a4,1
1c002854:	c298                	sw	a4,0(a3)
1c002856:	07d1                	addi	a5,a5,20
1c002858:	4731                	li	a4,12
1c00285a:	c398                	sw	a4,0(a5)
1c00285c:	85d6                	mv	a1,s5
1c00285e:	ba7ff0ef          	jal	ra,1c002404 <complete_msg>
1c002862:	b991                	j	1c0024b6 <callee_scmi_handler+0x9a>
1c002864:	77c1                	lui	a5,0xffff0
1c002866:	01c78693          	addi	a3,a5,28 # ffff001c <__heap_l2_shared_start+0xe3fdfffc>
1c00286a:	4701                	li	a4,0
1c00286c:	c298                	sw	a4,0(a3)
1c00286e:	02078693          	addi	a3,a5,32
1c002872:	4705                	li	a4,1
1c002874:	c298                	sw	a4,0(a3)
1c002876:	02478693          	addi	a3,a5,36
1c00287a:	04100713          	li	a4,65
1c00287e:	c298                	sw	a4,0(a3)
1c002880:	02878693          	addi	a3,a5,40
1c002884:	3e800713          	li	a4,1000
1c002888:	c298                	sw	a4,0(a3)
1c00288a:	07d1                	addi	a5,a5,20
1c00288c:	4751                	li	a4,20
1c00288e:	c398                	sw	a4,0(a5)
1c002890:	85d6                	mv	a1,s5
1c002892:	b73ff0ef          	jal	ra,1c002404 <complete_msg>
1c002896:	b105                	j	1c0024b6 <callee_scmi_handler+0x9a>
1c002898:	4681                	li	a3,0
1c00289a:	77c1                	lui	a5,0xffff0
1c00289c:	01c78713          	addi	a4,a5,28 # ffff001c <__heap_l2_shared_start+0xe3fdfffc>
1c0028a0:	c314                	sw	a3,0(a4)
1c0028a2:	02078613          	addi	a2,a5,32
1c0028a6:	6705                	lui	a4,0x1
1c0028a8:	0705                	addi	a4,a4,1
1c0028aa:	c218                	sw	a4,0(a2)
1c0028ac:	02478713          	addi	a4,a5,36
1c0028b0:	c314                	sw	a3,0(a4)
1c0028b2:	3e800713          	li	a4,1000
1c0028b6:	02878693          	addi	a3,a5,40
1c0028ba:	c298                	sw	a4,0(a3)
1c0028bc:	02c78693          	addi	a3,a5,44
1c0028c0:	c298                	sw	a4,0(a3)
1c0028c2:	07d1                	addi	a5,a5,20
1c0028c4:	4761                	li	a4,24
1c0028c6:	c398                	sw	a4,0(a5)
1c0028c8:	85d6                	mv	a1,s5
1c0028ca:	b3bff0ef          	jal	ra,1c002404 <complete_msg>
1c0028ce:	b6e5                	j	1c0024b6 <callee_scmi_handler+0x9a>

1c0028d0 <exit_success>:
1c0028d0:	1141                	addi	sp,sp,-16
1c0028d2:	c606                	sw	ra,12(sp)
1c0028d4:	b49ff0ef          	jal	ra,1c00241c <callee_scmi_handler>
1c0028d8:	40b2                	lw	ra,12(sp)
1c0028da:	0141                	addi	sp,sp,16
1c0028dc:	8082                	ret

1c0028de <main>:
1c0028de:	1141                	addi	sp,sp,-16
1c0028e0:	c606                	sw	ra,12(sp)
1c0028e2:	c422                	sw	s0,8(sp)
1c0028e4:	c226                	sw	s1,4(sp)
1c0028e6:	c04a                	sw	s2,0(sp)
1c0028e8:	d55fe0ef          	jal	ra,1c00163c <system_init>
1c0028ec:	1c008537          	lui	a0,0x1c008
1c0028f0:	27450513          	addi	a0,a0,628 # 1c008274 <__func__.1889+0x14>
1c0028f4:	7b0000ef          	jal	ra,1c0030a4 <puts>
1c0028f8:	67c1                	lui	a5,0x10
1c0028fa:	faa78793          	addi	a5,a5,-86 # ffaa <__stack_size+0xf7aa>
1c0028fe:	34779073          	csrw	0x347,a5
1c002902:	34702773          	csrr	a4,0x347
1c002906:	34705073          	csrwi	0x347,0
1c00290a:	0aa00793          	li	a5,170
1c00290e:	02f70163          	beq	a4,a5,1c002930 <main+0x52>
1c002912:	1c0086b7          	lui	a3,0x1c008
1c002916:	28868693          	addi	a3,a3,648 # 1c008288 <__func__.1889+0x28>
1c00291a:	1c008637          	lui	a2,0x1c008
1c00291e:	45c60613          	addi	a2,a2,1116 # 1c00845c <__func__.4560>
1c002922:	2b000593          	li	a1,688
1c002926:	1c008537          	lui	a0,0x1c008
1c00292a:	2a050513          	addi	a0,a0,672 # 1c0082a0 <__func__.1889+0x40>
1c00292e:	2041                	jal	1c0029ae <__assert_func>
1c002930:	942ff0ef          	jal	ra,1c001a72 <clic_setup_mtvec>
1c002934:	950ff0ef          	jal	ra,1c001a84 <clic_setup_mtvt>
1c002938:	4905                	li	s2,1
1c00293a:	1a201437          	lui	s0,0x1a201
1c00293e:	20840713          	addi	a4,s0,520 # 1a201208 <__heap_l1_cluster_start+0xa2011e8>
1c002942:	01272023          	sw	s2,0(a4) # 1000 <__stack_size+0x800>
1c002946:	431c                	lw	a5,0(a4)
1c002948:	c017c7b3          	p.bset	a5,a5,0,1
1c00294c:	00f70023          	sb	a5,0(a4)
1c002950:	47a1                	li	a5,8
1c002952:	1a200737          	lui	a4,0x1a200
1c002956:	00f70023          	sb	a5,0(a4) # 1a200000 <__heap_l1_cluster_start+0xa1fffe0>
1c00295a:	20c40713          	addi	a4,s0,524
1c00295e:	0aa00793          	li	a5,170
1c002962:	c31c                	sw	a5,0(a4)
1c002964:	0ff00793          	li	a5,255
1c002968:	34779073          	csrw	0x347,a5
1c00296c:	1c0027b7          	lui	a5,0x1c002
1c002970:	3fa78793          	addi	a5,a5,1018 # 1c0023fa <exit_fail>
1c002974:	18f1a623          	sw	a5,396(gp) # 1c008d78 <clic_isr_hook>
1c002978:	f9dfe0ef          	jal	ra,1c001914 <irq_clint_global_enable>
1c00297c:	20440413          	addi	s0,s0,516
1c002980:	01242023          	sw	s2,0(s0)
1c002984:	1c0037b7          	lui	a5,0x1c003
1c002988:	8d078793          	addi	a5,a5,-1840 # 1c0028d0 <exit_success>
1c00298c:	18f1a623          	sw	a5,396(gp) # 1c008d78 <clic_isr_hook>
1c002990:	34705073          	csrwi	0x347,0
1c002994:	a001                	j	1c002994 <main+0xb6>

1c002996 <vApplicationStackOverflowHook>:
1c002996:	30047073          	csrci	mstatus,8
1c00299a:	9002                	ebreak
1c00299c:	a001                	j	1c00299c <vApplicationStackOverflowHook+0x6>

1c00299e <abort>:
1c00299e:	1141                	addi	sp,sp,-16
1c0029a0:	4519                	li	a0,6
1c0029a2:	c606                	sw	ra,12(sp)
1c0029a4:	79a000ef          	jal	ra,1c00313e <raise>
1c0029a8:	4505                	li	a0,1
1c0029aa:	b01fe0ef          	jal	ra,1c0014aa <_exit>

1c0029ae <__assert_func>:
1c0029ae:	1c0087b7          	lui	a5,0x1c008
1c0029b2:	4547a783          	lw	a5,1108(a5) # 1c008454 <_impure_ptr>
1c0029b6:	1141                	addi	sp,sp,-16
1c0029b8:	8832                	mv	a6,a2
1c0029ba:	c606                	sw	ra,12(sp)
1c0029bc:	88aa                	mv	a7,a0
1c0029be:	872e                	mv	a4,a1
1c0029c0:	47c8                	lw	a0,12(a5)
1c0029c2:	8636                	mv	a2,a3
1c0029c4:	00080d63          	beqz	a6,1c0029de <__assert_func+0x30>
1c0029c8:	1c0087b7          	lui	a5,0x1c008
1c0029cc:	2b878793          	addi	a5,a5,696 # 1c0082b8 <__func__.1889+0x58>
1c0029d0:	1c0085b7          	lui	a1,0x1c008
1c0029d4:	86c6                	mv	a3,a7
1c0029d6:	2c858593          	addi	a1,a1,712 # 1c0082c8 <__func__.1889+0x68>
1c0029da:	2051                	jal	1c002a5e <fiprintf>
1c0029dc:	37c9                	jal	1c00299e <abort>
1c0029de:	1c008837          	lui	a6,0x1c008
1c0029e2:	27080793          	addi	a5,a6,624 # 1c008270 <__func__.1889+0x10>
1c0029e6:	27080813          	addi	a6,a6,624
1c0029ea:	b7dd                	j	1c0029d0 <__assert_func+0x22>

1c0029ec <atexit>:
1c0029ec:	85aa                	mv	a1,a0
1c0029ee:	4681                	li	a3,0
1c0029f0:	4601                	li	a2,0
1c0029f2:	4501                	li	a0,0
1c0029f4:	15f0006f          	j	1c003352 <__register_exitproc>

1c0029f8 <exit>:
1c0029f8:	1141                	addi	sp,sp,-16
1c0029fa:	1c0037b7          	lui	a5,0x1c003
1c0029fe:	c422                	sw	s0,8(sp)
1c002a00:	c606                	sw	ra,12(sp)
1c002a02:	3ce78793          	addi	a5,a5,974 # 1c0033ce <__call_exitprocs>
1c002a06:	842a                	mv	s0,a0
1c002a08:	c781                	beqz	a5,1c002a10 <exit+0x18>
1c002a0a:	4581                	li	a1,0
1c002a0c:	1c3000ef          	jal	ra,1c0033ce <__call_exitprocs>
1c002a10:	1c0087b7          	lui	a5,0x1c008
1c002a14:	4647a503          	lw	a0,1124(a5) # 1c008464 <_global_impure_ptr>
1c002a18:	551c                	lw	a5,40(a0)
1c002a1a:	c391                	beqz	a5,1c002a1e <exit+0x26>
1c002a1c:	9782                	jalr	a5
1c002a1e:	8522                	mv	a0,s0
1c002a20:	a8bfe0ef          	jal	ra,1c0014aa <_exit>

1c002a24 <__libc_fini_array>:
1c002a24:	1141                	addi	sp,sp,-16
1c002a26:	1c0087b7          	lui	a5,0x1c008
1c002a2a:	c422                	sw	s0,8(sp)
1c002a2c:	1c008437          	lui	s0,0x1c008
1c002a30:	3ec78713          	addi	a4,a5,1004 # 1c0083ec <impure_data>
1c002a34:	3ec40413          	addi	s0,s0,1004 # 1c0083ec <impure_data>
1c002a38:	8c19                	sub	s0,s0,a4
1c002a3a:	c226                	sw	s1,4(sp)
1c002a3c:	c606                	sw	ra,12(sp)
1c002a3e:	8409                	srai	s0,s0,0x2
1c002a40:	3ec78493          	addi	s1,a5,1004
1c002a44:	e411                	bnez	s0,1c002a50 <__libc_fini_array+0x2c>
1c002a46:	40b2                	lw	ra,12(sp)
1c002a48:	4422                	lw	s0,8(sp)
1c002a4a:	4492                	lw	s1,4(sp)
1c002a4c:	0141                	addi	sp,sp,16
1c002a4e:	8082                	ret
1c002a50:	147d                	addi	s0,s0,-1
1c002a52:	00241793          	slli	a5,s0,0x2
1c002a56:	97a6                	add	a5,a5,s1
1c002a58:	439c                	lw	a5,0(a5)
1c002a5a:	9782                	jalr	a5
1c002a5c:	b7e5                	j	1c002a44 <__libc_fini_array+0x20>

1c002a5e <fiprintf>:
1c002a5e:	7139                	addi	sp,sp,-64
1c002a60:	da3e                	sw	a5,52(sp)
1c002a62:	1c0087b7          	lui	a5,0x1c008
1c002a66:	d432                	sw	a2,40(sp)
1c002a68:	862e                	mv	a2,a1
1c002a6a:	85aa                	mv	a1,a0
1c002a6c:	4547a503          	lw	a0,1108(a5) # 1c008454 <_impure_ptr>
1c002a70:	d636                	sw	a3,44(sp)
1c002a72:	1034                	addi	a3,sp,40
1c002a74:	ce06                	sw	ra,28(sp)
1c002a76:	d83a                	sw	a4,48(sp)
1c002a78:	dc42                	sw	a6,56(sp)
1c002a7a:	de46                	sw	a7,60(sp)
1c002a7c:	c636                	sw	a3,12(sp)
1c002a7e:	2485                	jal	1c002cde <_vfiprintf_r>
1c002a80:	40f2                	lw	ra,28(sp)
1c002a82:	6121                	addi	sp,sp,64
1c002a84:	8082                	ret

1c002a86 <__libc_init_array>:
1c002a86:	1141                	addi	sp,sp,-16
1c002a88:	c422                	sw	s0,8(sp)
1c002a8a:	c226                	sw	s1,4(sp)
1c002a8c:	1c008437          	lui	s0,0x1c008
1c002a90:	1c0084b7          	lui	s1,0x1c008
1c002a94:	3ec48793          	addi	a5,s1,1004 # 1c0083ec <impure_data>
1c002a98:	3ec40413          	addi	s0,s0,1004 # 1c0083ec <impure_data>
1c002a9c:	8c1d                	sub	s0,s0,a5
1c002a9e:	c04a                	sw	s2,0(sp)
1c002aa0:	c606                	sw	ra,12(sp)
1c002aa2:	8409                	srai	s0,s0,0x2
1c002aa4:	3ec48493          	addi	s1,s1,1004
1c002aa8:	4901                	li	s2,0
1c002aaa:	02891763          	bne	s2,s0,1c002ad8 <__libc_init_array+0x52>
1c002aae:	1c0084b7          	lui	s1,0x1c008
1c002ab2:	1c008437          	lui	s0,0x1c008
1c002ab6:	3ec48793          	addi	a5,s1,1004 # 1c0083ec <impure_data>
1c002aba:	3ec40413          	addi	s0,s0,1004 # 1c0083ec <impure_data>
1c002abe:	8c1d                	sub	s0,s0,a5
1c002ac0:	8409                	srai	s0,s0,0x2
1c002ac2:	3ec48493          	addi	s1,s1,1004
1c002ac6:	4901                	li	s2,0
1c002ac8:	00891d63          	bne	s2,s0,1c002ae2 <__libc_init_array+0x5c>
1c002acc:	40b2                	lw	ra,12(sp)
1c002ace:	4422                	lw	s0,8(sp)
1c002ad0:	4492                	lw	s1,4(sp)
1c002ad2:	4902                	lw	s2,0(sp)
1c002ad4:	0141                	addi	sp,sp,16
1c002ad6:	8082                	ret
1c002ad8:	409c                	lw	a5,0(s1)
1c002ada:	0905                	addi	s2,s2,1
1c002adc:	0491                	addi	s1,s1,4
1c002ade:	9782                	jalr	a5
1c002ae0:	b7e9                	j	1c002aaa <__libc_init_array+0x24>
1c002ae2:	409c                	lw	a5,0(s1)
1c002ae4:	0905                	addi	s2,s2,1
1c002ae6:	0491                	addi	s1,s1,4
1c002ae8:	9782                	jalr	a5
1c002aea:	bff9                	j	1c002ac8 <__libc_init_array+0x42>

1c002aec <_free_r>:
1c002aec:	c1dd                	beqz	a1,1c002b92 <_free_r+0xa6>
1c002aee:	ffc5a783          	lw	a5,-4(a1)
1c002af2:	1101                	addi	sp,sp,-32
1c002af4:	cc22                	sw	s0,24(sp)
1c002af6:	ce06                	sw	ra,28(sp)
1c002af8:	ffc58413          	addi	s0,a1,-4
1c002afc:	0007d363          	bgez	a5,1c002b02 <_free_r+0x16>
1c002b00:	943e                	add	s0,s0,a5
1c002b02:	c62a                	sw	a0,12(sp)
1c002b04:	a9dfe0ef          	jal	ra,1c0015a0 <__malloc_lock>
1c002b08:	d6c1a783          	lw	a5,-660(gp) # 1c008958 <__malloc_free_list>
1c002b0c:	4532                	lw	a0,12(sp)
1c002b0e:	863a                	mv	a2,a4
1c002b10:	eb91                	bnez	a5,1c002b24 <_free_r+0x38>
1c002b12:	00042223          	sw	zero,4(s0)
1c002b16:	d681a623          	sw	s0,-660(gp) # 1c008958 <__malloc_free_list>
1c002b1a:	4462                	lw	s0,24(sp)
1c002b1c:	40f2                	lw	ra,28(sp)
1c002b1e:	6105                	addi	sp,sp,32
1c002b20:	a8ffe06f          	j	1c0015ae <__malloc_unlock>
1c002b24:	00f47f63          	bgeu	s0,a5,1c002b42 <_free_r+0x56>
1c002b28:	4014                	lw	a3,0(s0)
1c002b2a:	00d40733          	add	a4,s0,a3
1c002b2e:	00e79663          	bne	a5,a4,1c002b3a <_free_r+0x4e>
1c002b32:	4398                	lw	a4,0(a5)
1c002b34:	43dc                	lw	a5,4(a5)
1c002b36:	9736                	add	a4,a4,a3
1c002b38:	c018                	sw	a4,0(s0)
1c002b3a:	c05c                	sw	a5,4(s0)
1c002b3c:	d681a623          	sw	s0,-660(gp) # 1c008958 <__malloc_free_list>
1c002b40:	bfe9                	j	1c002b1a <_free_r+0x2e>
1c002b42:	873e                	mv	a4,a5
1c002b44:	43dc                	lw	a5,4(a5)
1c002b46:	c399                	beqz	a5,1c002b4c <_free_r+0x60>
1c002b48:	fef47de3          	bgeu	s0,a5,1c002b42 <_free_r+0x56>
1c002b4c:	4314                	lw	a3,0(a4)
1c002b4e:	00d70633          	add	a2,a4,a3
1c002b52:	00861f63          	bne	a2,s0,1c002b70 <_free_r+0x84>
1c002b56:	4010                	lw	a2,0(s0)
1c002b58:	96b2                	add	a3,a3,a2
1c002b5a:	c314                	sw	a3,0(a4)
1c002b5c:	00d70633          	add	a2,a4,a3
1c002b60:	fac79de3          	bne	a5,a2,1c002b1a <_free_r+0x2e>
1c002b64:	4390                	lw	a2,0(a5)
1c002b66:	43dc                	lw	a5,4(a5)
1c002b68:	96b2                	add	a3,a3,a2
1c002b6a:	c314                	sw	a3,0(a4)
1c002b6c:	c35c                	sw	a5,4(a4)
1c002b6e:	b775                	j	1c002b1a <_free_r+0x2e>
1c002b70:	00c47563          	bgeu	s0,a2,1c002b7a <_free_r+0x8e>
1c002b74:	47b1                	li	a5,12
1c002b76:	c11c                	sw	a5,0(a0)
1c002b78:	b74d                	j	1c002b1a <_free_r+0x2e>
1c002b7a:	4010                	lw	a2,0(s0)
1c002b7c:	00c406b3          	add	a3,s0,a2
1c002b80:	00d79663          	bne	a5,a3,1c002b8c <_free_r+0xa0>
1c002b84:	4394                	lw	a3,0(a5)
1c002b86:	43dc                	lw	a5,4(a5)
1c002b88:	96b2                	add	a3,a3,a2
1c002b8a:	c014                	sw	a3,0(s0)
1c002b8c:	c05c                	sw	a5,4(s0)
1c002b8e:	c340                	sw	s0,4(a4)
1c002b90:	b769                	j	1c002b1a <_free_r+0x2e>
1c002b92:	8082                	ret

1c002b94 <_malloc_r>:
1c002b94:	1101                	addi	sp,sp,-32
1c002b96:	ca26                	sw	s1,20(sp)
1c002b98:	00358493          	addi	s1,a1,3
1c002b9c:	98f1                	andi	s1,s1,-4
1c002b9e:	c84a                	sw	s2,16(sp)
1c002ba0:	ce06                	sw	ra,28(sp)
1c002ba2:	cc22                	sw	s0,24(sp)
1c002ba4:	c64e                	sw	s3,12(sp)
1c002ba6:	04a1                	addi	s1,s1,8
1c002ba8:	47b1                	li	a5,12
1c002baa:	892a                	mv	s2,a0
1c002bac:	04f4f563          	bgeu	s1,a5,1c002bf6 <_malloc_r+0x62>
1c002bb0:	44b1                	li	s1,12
1c002bb2:	04b4e463          	bltu	s1,a1,1c002bfa <_malloc_r+0x66>
1c002bb6:	854a                	mv	a0,s2
1c002bb8:	9e9fe0ef          	jal	ra,1c0015a0 <__malloc_lock>
1c002bbc:	d6c1a703          	lw	a4,-660(gp) # 1c008958 <__malloc_free_list>
1c002bc0:	d6c18693          	addi	a3,gp,-660 # 1c008958 <__malloc_free_list>
1c002bc4:	843a                	mv	s0,a4
1c002bc6:	e429                	bnez	s0,1c002c10 <_malloc_r+0x7c>
1c002bc8:	d7018413          	addi	s0,gp,-656 # 1c00895c <__malloc_sbrk_start>
1c002bcc:	401c                	lw	a5,0(s0)
1c002bce:	e791                	bnez	a5,1c002bda <_malloc_r+0x46>
1c002bd0:	4581                	li	a1,0
1c002bd2:	854a                	mv	a0,s2
1c002bd4:	4dc000ef          	jal	ra,1c0030b0 <_sbrk_r>
1c002bd8:	c008                	sw	a0,0(s0)
1c002bda:	85a6                	mv	a1,s1
1c002bdc:	854a                	mv	a0,s2
1c002bde:	4d2000ef          	jal	ra,1c0030b0 <_sbrk_r>
1c002be2:	59fd                	li	s3,-1
1c002be4:	07351a63          	bne	a0,s3,1c002c58 <_malloc_r+0xc4>
1c002be8:	47b1                	li	a5,12
1c002bea:	00f92023          	sw	a5,0(s2)
1c002bee:	854a                	mv	a0,s2
1c002bf0:	9bffe0ef          	jal	ra,1c0015ae <__malloc_unlock>
1c002bf4:	a031                	j	1c002c00 <_malloc_r+0x6c>
1c002bf6:	fa04dee3          	bgez	s1,1c002bb2 <_malloc_r+0x1e>
1c002bfa:	47b1                	li	a5,12
1c002bfc:	00f92023          	sw	a5,0(s2)
1c002c00:	4501                	li	a0,0
1c002c02:	40f2                	lw	ra,28(sp)
1c002c04:	4462                	lw	s0,24(sp)
1c002c06:	44d2                	lw	s1,20(sp)
1c002c08:	4942                	lw	s2,16(sp)
1c002c0a:	49b2                	lw	s3,12(sp)
1c002c0c:	6105                	addi	sp,sp,32
1c002c0e:	8082                	ret
1c002c10:	401c                	lw	a5,0(s0)
1c002c12:	8f85                	sub	a5,a5,s1
1c002c14:	0207cf63          	bltz	a5,1c002c52 <_malloc_r+0xbe>
1c002c18:	462d                	li	a2,11
1c002c1a:	00f67663          	bgeu	a2,a5,1c002c26 <_malloc_r+0x92>
1c002c1e:	c01c                	sw	a5,0(s0)
1c002c20:	943e                	add	s0,s0,a5
1c002c22:	c004                	sw	s1,0(s0)
1c002c24:	a029                	j	1c002c2e <_malloc_r+0x9a>
1c002c26:	405c                	lw	a5,4(s0)
1c002c28:	02871363          	bne	a4,s0,1c002c4e <_malloc_r+0xba>
1c002c2c:	c29c                	sw	a5,0(a3)
1c002c2e:	854a                	mv	a0,s2
1c002c30:	97ffe0ef          	jal	ra,1c0015ae <__malloc_unlock>
1c002c34:	00b40513          	addi	a0,s0,11
1c002c38:	00440793          	addi	a5,s0,4
1c002c3c:	9961                	andi	a0,a0,-8
1c002c3e:	40f50733          	sub	a4,a0,a5
1c002c42:	fcf500e3          	beq	a0,a5,1c002c02 <_malloc_r+0x6e>
1c002c46:	943a                	add	s0,s0,a4
1c002c48:	8f89                	sub	a5,a5,a0
1c002c4a:	c01c                	sw	a5,0(s0)
1c002c4c:	bf5d                	j	1c002c02 <_malloc_r+0x6e>
1c002c4e:	c35c                	sw	a5,4(a4)
1c002c50:	bff9                	j	1c002c2e <_malloc_r+0x9a>
1c002c52:	8722                	mv	a4,s0
1c002c54:	4040                	lw	s0,4(s0)
1c002c56:	bf85                	j	1c002bc6 <_malloc_r+0x32>
1c002c58:	00350413          	addi	s0,a0,3
1c002c5c:	9871                	andi	s0,s0,-4
1c002c5e:	fc8502e3          	beq	a0,s0,1c002c22 <_malloc_r+0x8e>
1c002c62:	40a405b3          	sub	a1,s0,a0
1c002c66:	854a                	mv	a0,s2
1c002c68:	448000ef          	jal	ra,1c0030b0 <_sbrk_r>
1c002c6c:	fb351be3          	bne	a0,s3,1c002c22 <_malloc_r+0x8e>
1c002c70:	bfa5                	j	1c002be8 <_malloc_r+0x54>

1c002c72 <__sfputc_r>:
1c002c72:	461c                	lw	a5,8(a2)
1c002c74:	17fd                	addi	a5,a5,-1
1c002c76:	c61c                	sw	a5,8(a2)
1c002c78:	0007da63          	bgez	a5,1c002c8c <__sfputc_r+0x1a>
1c002c7c:	4e18                	lw	a4,24(a2)
1c002c7e:	00e7c563          	blt	a5,a4,1c002c88 <__sfputc_r+0x16>
1c002c82:	47a9                	li	a5,10
1c002c84:	00f59463          	bne	a1,a5,1c002c8c <__sfputc_r+0x1a>
1c002c88:	4f40006f          	j	1c00317c <__swbuf_r>
1c002c8c:	421c                	lw	a5,0(a2)
1c002c8e:	852e                	mv	a0,a1
1c002c90:	00178713          	addi	a4,a5,1
1c002c94:	c218                	sw	a4,0(a2)
1c002c96:	00b78023          	sb	a1,0(a5)
1c002c9a:	8082                	ret

1c002c9c <__sfputs_r>:
1c002c9c:	1101                	addi	sp,sp,-32
1c002c9e:	cc22                	sw	s0,24(sp)
1c002ca0:	ca26                	sw	s1,20(sp)
1c002ca2:	c84a                	sw	s2,16(sp)
1c002ca4:	c64e                	sw	s3,12(sp)
1c002ca6:	c452                	sw	s4,8(sp)
1c002ca8:	ce06                	sw	ra,28(sp)
1c002caa:	892a                	mv	s2,a0
1c002cac:	89ae                	mv	s3,a1
1c002cae:	8432                	mv	s0,a2
1c002cb0:	00d604b3          	add	s1,a2,a3
1c002cb4:	5a7d                	li	s4,-1
1c002cb6:	00941463          	bne	s0,s1,1c002cbe <__sfputs_r+0x22>
1c002cba:	4501                	li	a0,0
1c002cbc:	a809                	j	1c002cce <__sfputs_r+0x32>
1c002cbe:	00044583          	lbu	a1,0(s0)
1c002cc2:	864e                	mv	a2,s3
1c002cc4:	854a                	mv	a0,s2
1c002cc6:	3775                	jal	1c002c72 <__sfputc_r>
1c002cc8:	0405                	addi	s0,s0,1
1c002cca:	ff4516e3          	bne	a0,s4,1c002cb6 <__sfputs_r+0x1a>
1c002cce:	40f2                	lw	ra,28(sp)
1c002cd0:	4462                	lw	s0,24(sp)
1c002cd2:	44d2                	lw	s1,20(sp)
1c002cd4:	4942                	lw	s2,16(sp)
1c002cd6:	49b2                	lw	s3,12(sp)
1c002cd8:	4a22                	lw	s4,8(sp)
1c002cda:	6105                	addi	sp,sp,32
1c002cdc:	8082                	ret

1c002cde <_vfiprintf_r>:
1c002cde:	7171                	addi	sp,sp,-176
1c002ce0:	d522                	sw	s0,168(sp)
1c002ce2:	d326                	sw	s1,164(sp)
1c002ce4:	d14a                	sw	s2,160(sp)
1c002ce6:	cf4e                	sw	s3,156(sp)
1c002ce8:	d706                	sw	ra,172(sp)
1c002cea:	cd52                	sw	s4,152(sp)
1c002cec:	cb56                	sw	s5,148(sp)
1c002cee:	c95a                	sw	s6,144(sp)
1c002cf0:	c75e                	sw	s7,140(sp)
1c002cf2:	c562                	sw	s8,136(sp)
1c002cf4:	c366                	sw	s9,132(sp)
1c002cf6:	c16a                	sw	s10,128(sp)
1c002cf8:	deee                	sw	s11,124(sp)
1c002cfa:	89aa                	mv	s3,a0
1c002cfc:	84ae                	mv	s1,a1
1c002cfe:	8932                	mv	s2,a2
1c002d00:	8436                	mv	s0,a3
1c002d02:	c509                	beqz	a0,1c002d0c <_vfiprintf_r+0x2e>
1c002d04:	4d1c                	lw	a5,24(a0)
1c002d06:	e399                	bnez	a5,1c002d0c <_vfiprintf_r+0x2e>
1c002d08:	1fb000ef          	jal	ra,1c003702 <__sinit>
1c002d0c:	1c0087b7          	lui	a5,0x1c008
1c002d10:	32c78793          	addi	a5,a5,812 # 1c00832c <__sf_fake_stdin>
1c002d14:	0ef49563          	bne	s1,a5,1c002dfe <_vfiprintf_r+0x120>
1c002d18:	0049a483          	lw	s1,4(s3)
1c002d1c:	00c4d783          	lhu	a5,12(s1)
1c002d20:	8ba1                	andi	a5,a5,8
1c002d22:	10078063          	beqz	a5,1c002e22 <_vfiprintf_r+0x144>
1c002d26:	489c                	lw	a5,16(s1)
1c002d28:	0e078d63          	beqz	a5,1c002e22 <_vfiprintf_r+0x144>
1c002d2c:	02000793          	li	a5,32
1c002d30:	02f104a3          	sb	a5,41(sp)
1c002d34:	03000793          	li	a5,48
1c002d38:	d202                	sw	zero,36(sp)
1c002d3a:	02f10523          	sb	a5,42(sp)
1c002d3e:	c622                	sw	s0,12(sp)
1c002d40:	02500c93          	li	s9,37
1c002d44:	1c008b37          	lui	s6,0x1c008
1c002d48:	1c008bb7          	lui	s7,0x1c008
1c002d4c:	1c008d37          	lui	s10,0x1c008
1c002d50:	1c003c37          	lui	s8,0x1c003
1c002d54:	00000a93          	li	s5,0
1c002d58:	844a                	mv	s0,s2
1c002d5a:	00044783          	lbu	a5,0(s0)
1c002d5e:	c399                	beqz	a5,1c002d64 <_vfiprintf_r+0x86>
1c002d60:	0f979763          	bne	a5,s9,1c002e4e <_vfiprintf_r+0x170>
1c002d64:	41240db3          	sub	s11,s0,s2
1c002d68:	01240d63          	beq	s0,s2,1c002d82 <_vfiprintf_r+0xa4>
1c002d6c:	86ee                	mv	a3,s11
1c002d6e:	864a                	mv	a2,s2
1c002d70:	85a6                	mv	a1,s1
1c002d72:	854e                	mv	a0,s3
1c002d74:	3725                	jal	1c002c9c <__sfputs_r>
1c002d76:	57fd                	li	a5,-1
1c002d78:	1ef50663          	beq	a0,a5,1c002f64 <_vfiprintf_r+0x286>
1c002d7c:	5792                	lw	a5,36(sp)
1c002d7e:	97ee                	add	a5,a5,s11
1c002d80:	d23e                	sw	a5,36(sp)
1c002d82:	00044783          	lbu	a5,0(s0)
1c002d86:	1c078f63          	beqz	a5,1c002f64 <_vfiprintf_r+0x286>
1c002d8a:	57fd                	li	a5,-1
1c002d8c:	00140913          	addi	s2,s0,1
1c002d90:	c802                	sw	zero,16(sp)
1c002d92:	ce02                	sw	zero,28(sp)
1c002d94:	ca3e                	sw	a5,20(sp)
1c002d96:	cc02                	sw	zero,24(sp)
1c002d98:	040109a3          	sb	zero,83(sp)
1c002d9c:	d482                	sw	zero,104(sp)
1c002d9e:	4d85                	li	s11,1
1c002da0:	00094583          	lbu	a1,0(s2)
1c002da4:	4615                	li	a2,5
1c002da6:	2f8b0513          	addi	a0,s6,760 # 1c0082f8 <__func__.1889+0x98>
1c002daa:	3c7000ef          	jal	ra,1c003970 <memchr>
1c002dae:	47c2                	lw	a5,16(sp)
1c002db0:	00190413          	addi	s0,s2,1
1c002db4:	ed59                	bnez	a0,1c002e52 <_vfiprintf_r+0x174>
1c002db6:	0107f713          	andi	a4,a5,16
1c002dba:	c709                	beqz	a4,1c002dc4 <_vfiprintf_r+0xe6>
1c002dbc:	02000713          	li	a4,32
1c002dc0:	04e109a3          	sb	a4,83(sp)
1c002dc4:	0087f713          	andi	a4,a5,8
1c002dc8:	c709                	beqz	a4,1c002dd2 <_vfiprintf_r+0xf4>
1c002dca:	02b00713          	li	a4,43
1c002dce:	04e109a3          	sb	a4,83(sp)
1c002dd2:	00094683          	lbu	a3,0(s2)
1c002dd6:	02a00713          	li	a4,42
1c002dda:	08e68563          	beq	a3,a4,1c002e64 <_vfiprintf_r+0x186>
1c002dde:	47f2                	lw	a5,28(sp)
1c002de0:	844a                	mv	s0,s2
1c002de2:	4681                	li	a3,0
1c002de4:	4625                	li	a2,9
1c002de6:	4529                	li	a0,10
1c002de8:	00044703          	lbu	a4,0(s0)
1c002dec:	00140593          	addi	a1,s0,1
1c002df0:	fd070713          	addi	a4,a4,-48
1c002df4:	0ae67d63          	bgeu	a2,a4,1c002eae <_vfiprintf_r+0x1d0>
1c002df8:	ceb5                	beqz	a3,1c002e74 <_vfiprintf_r+0x196>
1c002dfa:	ce3e                	sw	a5,28(sp)
1c002dfc:	a8a5                	j	1c002e74 <_vfiprintf_r+0x196>
1c002dfe:	1c0087b7          	lui	a5,0x1c008
1c002e02:	34c78793          	addi	a5,a5,844 # 1c00834c <__sf_fake_stdout>
1c002e06:	00f49563          	bne	s1,a5,1c002e10 <_vfiprintf_r+0x132>
1c002e0a:	0089a483          	lw	s1,8(s3)
1c002e0e:	b739                	j	1c002d1c <_vfiprintf_r+0x3e>
1c002e10:	1c0087b7          	lui	a5,0x1c008
1c002e14:	30c78793          	addi	a5,a5,780 # 1c00830c <__sf_fake_stderr>
1c002e18:	f0f492e3          	bne	s1,a5,1c002d1c <_vfiprintf_r+0x3e>
1c002e1c:	00c9a483          	lw	s1,12(s3)
1c002e20:	bdf5                	j	1c002d1c <_vfiprintf_r+0x3e>
1c002e22:	85a6                	mv	a1,s1
1c002e24:	854e                	mv	a0,s3
1c002e26:	41c000ef          	jal	ra,1c003242 <__swsetup_r>
1c002e2a:	f00501e3          	beqz	a0,1c002d2c <_vfiprintf_r+0x4e>
1c002e2e:	557d                	li	a0,-1
1c002e30:	50ba                	lw	ra,172(sp)
1c002e32:	542a                	lw	s0,168(sp)
1c002e34:	549a                	lw	s1,164(sp)
1c002e36:	590a                	lw	s2,160(sp)
1c002e38:	49fa                	lw	s3,156(sp)
1c002e3a:	4a6a                	lw	s4,152(sp)
1c002e3c:	4ada                	lw	s5,148(sp)
1c002e3e:	4b4a                	lw	s6,144(sp)
1c002e40:	4bba                	lw	s7,140(sp)
1c002e42:	4c2a                	lw	s8,136(sp)
1c002e44:	4c9a                	lw	s9,132(sp)
1c002e46:	4d0a                	lw	s10,128(sp)
1c002e48:	5df6                	lw	s11,124(sp)
1c002e4a:	614d                	addi	sp,sp,176
1c002e4c:	8082                	ret
1c002e4e:	0405                	addi	s0,s0,1
1c002e50:	b729                	j	1c002d5a <_vfiprintf_r+0x7c>
1c002e52:	2f8b0713          	addi	a4,s6,760
1c002e56:	8d19                	sub	a0,a0,a4
1c002e58:	00ad9533          	sll	a0,s11,a0
1c002e5c:	8fc9                	or	a5,a5,a0
1c002e5e:	c83e                	sw	a5,16(sp)
1c002e60:	8922                	mv	s2,s0
1c002e62:	bf3d                	j	1c002da0 <_vfiprintf_r+0xc2>
1c002e64:	4732                	lw	a4,12(sp)
1c002e66:	00470693          	addi	a3,a4,4
1c002e6a:	4318                	lw	a4,0(a4)
1c002e6c:	c636                	sw	a3,12(sp)
1c002e6e:	02074963          	bltz	a4,1c002ea0 <_vfiprintf_r+0x1c2>
1c002e72:	ce3a                	sw	a4,28(sp)
1c002e74:	00044703          	lbu	a4,0(s0)
1c002e78:	02e00793          	li	a5,46
1c002e7c:	06f71063          	bne	a4,a5,1c002edc <_vfiprintf_r+0x1fe>
1c002e80:	00144703          	lbu	a4,1(s0)
1c002e84:	02a00793          	li	a5,42
1c002e88:	02f71b63          	bne	a4,a5,1c002ebe <_vfiprintf_r+0x1e0>
1c002e8c:	47b2                	lw	a5,12(sp)
1c002e8e:	0409                	addi	s0,s0,2
1c002e90:	00478713          	addi	a4,a5,4
1c002e94:	439c                	lw	a5,0(a5)
1c002e96:	c63a                	sw	a4,12(sp)
1c002e98:	0207c163          	bltz	a5,1c002eba <_vfiprintf_r+0x1dc>
1c002e9c:	ca3e                	sw	a5,20(sp)
1c002e9e:	a83d                	j	1c002edc <_vfiprintf_r+0x1fe>
1c002ea0:	40e00733          	neg	a4,a4
1c002ea4:	0027e793          	ori	a5,a5,2
1c002ea8:	ce3a                	sw	a4,28(sp)
1c002eaa:	c83e                	sw	a5,16(sp)
1c002eac:	b7e1                	j	1c002e74 <_vfiprintf_r+0x196>
1c002eae:	02a787b3          	mul	a5,a5,a0
1c002eb2:	842e                	mv	s0,a1
1c002eb4:	4685                	li	a3,1
1c002eb6:	97ba                	add	a5,a5,a4
1c002eb8:	bf05                	j	1c002de8 <_vfiprintf_r+0x10a>
1c002eba:	57fd                	li	a5,-1
1c002ebc:	b7c5                	j	1c002e9c <_vfiprintf_r+0x1be>
1c002ebe:	0405                	addi	s0,s0,1
1c002ec0:	ca02                	sw	zero,20(sp)
1c002ec2:	4681                	li	a3,0
1c002ec4:	4781                	li	a5,0
1c002ec6:	4625                	li	a2,9
1c002ec8:	4529                	li	a0,10
1c002eca:	00044703          	lbu	a4,0(s0)
1c002ece:	00140593          	addi	a1,s0,1
1c002ed2:	fd070713          	addi	a4,a4,-48
1c002ed6:	04e67f63          	bgeu	a2,a4,1c002f34 <_vfiprintf_r+0x256>
1c002eda:	f2e9                	bnez	a3,1c002e9c <_vfiprintf_r+0x1be>
1c002edc:	00044583          	lbu	a1,0(s0)
1c002ee0:	460d                	li	a2,3
1c002ee2:	300b8513          	addi	a0,s7,768 # 1c008300 <__func__.1889+0xa0>
1c002ee6:	28b000ef          	jal	ra,1c003970 <memchr>
1c002eea:	cd01                	beqz	a0,1c002f02 <_vfiprintf_r+0x224>
1c002eec:	300b8793          	addi	a5,s7,768
1c002ef0:	8d1d                	sub	a0,a0,a5
1c002ef2:	04000793          	li	a5,64
1c002ef6:	00a797b3          	sll	a5,a5,a0
1c002efa:	4542                	lw	a0,16(sp)
1c002efc:	0405                	addi	s0,s0,1
1c002efe:	8d5d                	or	a0,a0,a5
1c002f00:	c82a                	sw	a0,16(sp)
1c002f02:	00044583          	lbu	a1,0(s0)
1c002f06:	4619                	li	a2,6
1c002f08:	304d0513          	addi	a0,s10,772 # 1c008304 <__func__.1889+0xa4>
1c002f0c:	00140913          	addi	s2,s0,1
1c002f10:	02b10423          	sb	a1,40(sp)
1c002f14:	25d000ef          	jal	ra,1c003970 <memchr>
1c002f18:	cd31                	beqz	a0,1c002f74 <_vfiprintf_r+0x296>
1c002f1a:	020a9763          	bnez	s5,1c002f48 <_vfiprintf_r+0x26a>
1c002f1e:	4742                	lw	a4,16(sp)
1c002f20:	47b2                	lw	a5,12(sp)
1c002f22:	10077713          	andi	a4,a4,256
1c002f26:	cf09                	beqz	a4,1c002f40 <_vfiprintf_r+0x262>
1c002f28:	0791                	addi	a5,a5,4
1c002f2a:	c63e                	sw	a5,12(sp)
1c002f2c:	5792                	lw	a5,36(sp)
1c002f2e:	97d2                	add	a5,a5,s4
1c002f30:	d23e                	sw	a5,36(sp)
1c002f32:	b51d                	j	1c002d58 <_vfiprintf_r+0x7a>
1c002f34:	02a787b3          	mul	a5,a5,a0
1c002f38:	842e                	mv	s0,a1
1c002f3a:	4685                	li	a3,1
1c002f3c:	97ba                	add	a5,a5,a4
1c002f3e:	b771                	j	1c002eca <_vfiprintf_r+0x1ec>
1c002f40:	079d                	addi	a5,a5,7
1c002f42:	9be1                	andi	a5,a5,-8
1c002f44:	07a1                	addi	a5,a5,8
1c002f46:	b7d5                	j	1c002f2a <_vfiprintf_r+0x24c>
1c002f48:	0078                	addi	a4,sp,12
1c002f4a:	c9cc0693          	addi	a3,s8,-868 # 1c002c9c <__sfputs_r>
1c002f4e:	8626                	mv	a2,s1
1c002f50:	080c                	addi	a1,sp,16
1c002f52:	854e                	mv	a0,s3
1c002f54:	00000097          	auipc	ra,0x0
1c002f58:	000000e7          	jalr	zero # 0 <__heap_size>
1c002f5c:	57fd                	li	a5,-1
1c002f5e:	8a2a                	mv	s4,a0
1c002f60:	fcf516e3          	bne	a0,a5,1c002f2c <_vfiprintf_r+0x24e>
1c002f64:	00c4d783          	lhu	a5,12(s1)
1c002f68:	0407f793          	andi	a5,a5,64
1c002f6c:	ec0791e3          	bnez	a5,1c002e2e <_vfiprintf_r+0x150>
1c002f70:	5512                	lw	a0,36(sp)
1c002f72:	bd7d                	j	1c002e30 <_vfiprintf_r+0x152>
1c002f74:	0078                	addi	a4,sp,12
1c002f76:	c9cc0693          	addi	a3,s8,-868
1c002f7a:	8626                	mv	a2,s1
1c002f7c:	080c                	addi	a1,sp,16
1c002f7e:	854e                	mv	a0,s3
1c002f80:	317000ef          	jal	ra,1c003a96 <_printf_i>
1c002f84:	bfe1                	j	1c002f5c <_vfiprintf_r+0x27e>

1c002f86 <iprintf>:
1c002f86:	715d                	addi	sp,sp,-80
1c002f88:	c2be                	sw	a5,68(sp)
1c002f8a:	1c0087b7          	lui	a5,0x1c008
1c002f8e:	d422                	sw	s0,40(sp)
1c002f90:	842a                	mv	s0,a0
1c002f92:	4547a503          	lw	a0,1108(a5) # 1c008454 <_impure_ptr>
1c002f96:	d606                	sw	ra,44(sp)
1c002f98:	da2e                	sw	a1,52(sp)
1c002f9a:	dc32                	sw	a2,56(sp)
1c002f9c:	de36                	sw	a3,60(sp)
1c002f9e:	c0ba                	sw	a4,64(sp)
1c002fa0:	c4c2                	sw	a6,72(sp)
1c002fa2:	c6c6                	sw	a7,76(sp)
1c002fa4:	c519                	beqz	a0,1c002fb2 <iprintf+0x2c>
1c002fa6:	4d1c                	lw	a5,24(a0)
1c002fa8:	e789                	bnez	a5,1c002fb2 <iprintf+0x2c>
1c002faa:	c62a                	sw	a0,12(sp)
1c002fac:	756000ef          	jal	ra,1c003702 <__sinit>
1c002fb0:	4532                	lw	a0,12(sp)
1c002fb2:	450c                	lw	a1,8(a0)
1c002fb4:	1854                	addi	a3,sp,52
1c002fb6:	8622                	mv	a2,s0
1c002fb8:	ce36                	sw	a3,28(sp)
1c002fba:	d25ff0ef          	jal	ra,1c002cde <_vfiprintf_r>
1c002fbe:	50b2                	lw	ra,44(sp)
1c002fc0:	5422                	lw	s0,40(sp)
1c002fc2:	6161                	addi	sp,sp,80
1c002fc4:	8082                	ret

1c002fc6 <_puts_r>:
1c002fc6:	1101                	addi	sp,sp,-32
1c002fc8:	ca26                	sw	s1,20(sp)
1c002fca:	c84a                	sw	s2,16(sp)
1c002fcc:	ce06                	sw	ra,28(sp)
1c002fce:	cc22                	sw	s0,24(sp)
1c002fd0:	c64e                	sw	s3,12(sp)
1c002fd2:	c452                	sw	s4,8(sp)
1c002fd4:	84aa                	mv	s1,a0
1c002fd6:	892e                	mv	s2,a1
1c002fd8:	c509                	beqz	a0,1c002fe2 <_puts_r+0x1c>
1c002fda:	4d1c                	lw	a5,24(a0)
1c002fdc:	e399                	bnez	a5,1c002fe2 <_puts_r+0x1c>
1c002fde:	724000ef          	jal	ra,1c003702 <__sinit>
1c002fe2:	4c9c                	lw	a5,24(s1)
1c002fe4:	4480                	lw	s0,8(s1)
1c002fe6:	e781                	bnez	a5,1c002fee <_puts_r+0x28>
1c002fe8:	8526                	mv	a0,s1
1c002fea:	718000ef          	jal	ra,1c003702 <__sinit>
1c002fee:	1c0087b7          	lui	a5,0x1c008
1c002ff2:	32c78793          	addi	a5,a5,812 # 1c00832c <__sf_fake_stdin>
1c002ff6:	02f41c63          	bne	s0,a5,1c00302e <_puts_r+0x68>
1c002ffa:	40c0                	lw	s0,4(s1)
1c002ffc:	00c45783          	lhu	a5,12(s0)
1c003000:	8ba1                	andi	a5,a5,8
1c003002:	c7b1                	beqz	a5,1c00304e <_puts_r+0x88>
1c003004:	481c                	lw	a5,16(s0)
1c003006:	c7a1                	beqz	a5,1c00304e <_puts_r+0x88>
1c003008:	59fd                	li	s3,-1
1c00300a:	4a29                	li	s4,10
1c00300c:	441c                	lw	a5,8(s0)
1c00300e:	00094583          	lbu	a1,0(s2)
1c003012:	17fd                	addi	a5,a5,-1
1c003014:	e9b1                	bnez	a1,1c003068 <_puts_r+0xa2>
1c003016:	c41c                	sw	a5,8(s0)
1c003018:	0607de63          	bgez	a5,1c003094 <_puts_r+0xce>
1c00301c:	8622                	mv	a2,s0
1c00301e:	45a9                	li	a1,10
1c003020:	8526                	mv	a0,s1
1c003022:	2aa9                	jal	1c00317c <__swbuf_r>
1c003024:	57fd                	li	a5,-1
1c003026:	02f50863          	beq	a0,a5,1c003056 <_puts_r+0x90>
1c00302a:	4529                	li	a0,10
1c00302c:	a035                	j	1c003058 <_puts_r+0x92>
1c00302e:	1c0087b7          	lui	a5,0x1c008
1c003032:	34c78793          	addi	a5,a5,844 # 1c00834c <__sf_fake_stdout>
1c003036:	00f41463          	bne	s0,a5,1c00303e <_puts_r+0x78>
1c00303a:	4480                	lw	s0,8(s1)
1c00303c:	b7c1                	j	1c002ffc <_puts_r+0x36>
1c00303e:	1c0087b7          	lui	a5,0x1c008
1c003042:	30c78793          	addi	a5,a5,780 # 1c00830c <__sf_fake_stderr>
1c003046:	faf41be3          	bne	s0,a5,1c002ffc <_puts_r+0x36>
1c00304a:	44c0                	lw	s0,12(s1)
1c00304c:	bf45                	j	1c002ffc <_puts_r+0x36>
1c00304e:	85a2                	mv	a1,s0
1c003050:	8526                	mv	a0,s1
1c003052:	2ac5                	jal	1c003242 <__swsetup_r>
1c003054:	d955                	beqz	a0,1c003008 <_puts_r+0x42>
1c003056:	557d                	li	a0,-1
1c003058:	40f2                	lw	ra,28(sp)
1c00305a:	4462                	lw	s0,24(sp)
1c00305c:	44d2                	lw	s1,20(sp)
1c00305e:	4942                	lw	s2,16(sp)
1c003060:	49b2                	lw	s3,12(sp)
1c003062:	4a22                	lw	s4,8(sp)
1c003064:	6105                	addi	sp,sp,32
1c003066:	8082                	ret
1c003068:	c41c                	sw	a5,8(s0)
1c00306a:	0905                	addi	s2,s2,1
1c00306c:	0007d763          	bgez	a5,1c00307a <_puts_r+0xb4>
1c003070:	4c18                	lw	a4,24(s0)
1c003072:	00e7cb63          	blt	a5,a4,1c003088 <_puts_r+0xc2>
1c003076:	01458963          	beq	a1,s4,1c003088 <_puts_r+0xc2>
1c00307a:	401c                	lw	a5,0(s0)
1c00307c:	00178713          	addi	a4,a5,1
1c003080:	c018                	sw	a4,0(s0)
1c003082:	00b78023          	sb	a1,0(a5)
1c003086:	b759                	j	1c00300c <_puts_r+0x46>
1c003088:	8622                	mv	a2,s0
1c00308a:	8526                	mv	a0,s1
1c00308c:	28c5                	jal	1c00317c <__swbuf_r>
1c00308e:	f7351fe3          	bne	a0,s3,1c00300c <_puts_r+0x46>
1c003092:	b7d1                	j	1c003056 <_puts_r+0x90>
1c003094:	401c                	lw	a5,0(s0)
1c003096:	00178713          	addi	a4,a5,1
1c00309a:	c018                	sw	a4,0(s0)
1c00309c:	4729                	li	a4,10
1c00309e:	00e78023          	sb	a4,0(a5)
1c0030a2:	b761                	j	1c00302a <_puts_r+0x64>

1c0030a4 <puts>:
1c0030a4:	1c0087b7          	lui	a5,0x1c008
1c0030a8:	85aa                	mv	a1,a0
1c0030aa:	4547a503          	lw	a0,1108(a5) # 1c008454 <_impure_ptr>
1c0030ae:	bf21                	j	1c002fc6 <_puts_r>

1c0030b0 <_sbrk_r>:
1c0030b0:	1141                	addi	sp,sp,-16
1c0030b2:	c422                	sw	s0,8(sp)
1c0030b4:	c226                	sw	s1,4(sp)
1c0030b6:	842a                	mv	s0,a0
1c0030b8:	852e                	mv	a0,a1
1c0030ba:	c606                	sw	ra,12(sp)
1c0030bc:	1801a823          	sw	zero,400(gp) # 1c008d7c <errno>
1c0030c0:	cb4fe0ef          	jal	ra,1c001574 <_sbrk>
1c0030c4:	57fd                	li	a5,-1
1c0030c6:	00f51663          	bne	a0,a5,1c0030d2 <_sbrk_r+0x22>
1c0030ca:	1901a783          	lw	a5,400(gp) # 1c008d7c <errno>
1c0030ce:	c391                	beqz	a5,1c0030d2 <_sbrk_r+0x22>
1c0030d0:	c01c                	sw	a5,0(s0)
1c0030d2:	40b2                	lw	ra,12(sp)
1c0030d4:	4422                	lw	s0,8(sp)
1c0030d6:	4492                	lw	s1,4(sp)
1c0030d8:	0141                	addi	sp,sp,16
1c0030da:	8082                	ret

1c0030dc <_raise_r>:
1c0030dc:	1101                	addi	sp,sp,-32
1c0030de:	cc22                	sw	s0,24(sp)
1c0030e0:	ce06                	sw	ra,28(sp)
1c0030e2:	47fd                	li	a5,31
1c0030e4:	842a                	mv	s0,a0
1c0030e6:	00b7f963          	bgeu	a5,a1,1c0030f8 <_raise_r+0x1c>
1c0030ea:	47d9                	li	a5,22
1c0030ec:	c11c                	sw	a5,0(a0)
1c0030ee:	557d                	li	a0,-1
1c0030f0:	40f2                	lw	ra,28(sp)
1c0030f2:	4462                	lw	s0,24(sp)
1c0030f4:	6105                	addi	sp,sp,32
1c0030f6:	8082                	ret
1c0030f8:	417c                	lw	a5,68(a0)
1c0030fa:	862e                	mv	a2,a1
1c0030fc:	c791                	beqz	a5,1c003108 <_raise_r+0x2c>
1c0030fe:	00259713          	slli	a4,a1,0x2
1c003102:	97ba                	add	a5,a5,a4
1c003104:	4398                	lw	a4,0(a5)
1c003106:	eb19                	bnez	a4,1c00311c <_raise_r+0x40>
1c003108:	8522                	mv	a0,s0
1c00310a:	c632                	sw	a2,12(sp)
1c00310c:	20b5                	jal	1c003178 <_getpid_r>
1c00310e:	85aa                	mv	a1,a0
1c003110:	8522                	mv	a0,s0
1c003112:	4462                	lw	s0,24(sp)
1c003114:	4632                	lw	a2,12(sp)
1c003116:	40f2                	lw	ra,28(sp)
1c003118:	6105                	addi	sp,sp,32
1c00311a:	a805                	j	1c00314a <_kill_r>
1c00311c:	4685                	li	a3,1
1c00311e:	4501                	li	a0,0
1c003120:	fcd708e3          	beq	a4,a3,1c0030f0 <_raise_r+0x14>
1c003124:	56fd                	li	a3,-1
1c003126:	00d71663          	bne	a4,a3,1c003132 <_raise_r+0x56>
1c00312a:	47d9                	li	a5,22
1c00312c:	c01c                	sw	a5,0(s0)
1c00312e:	4505                	li	a0,1
1c003130:	b7c1                	j	1c0030f0 <_raise_r+0x14>
1c003132:	852e                	mv	a0,a1
1c003134:	0007a023          	sw	zero,0(a5)
1c003138:	9702                	jalr	a4
1c00313a:	4501                	li	a0,0
1c00313c:	bf55                	j	1c0030f0 <_raise_r+0x14>

1c00313e <raise>:
1c00313e:	1c0087b7          	lui	a5,0x1c008
1c003142:	85aa                	mv	a1,a0
1c003144:	4547a503          	lw	a0,1108(a5) # 1c008454 <_impure_ptr>
1c003148:	bf51                	j	1c0030dc <_raise_r>

1c00314a <_kill_r>:
1c00314a:	1141                	addi	sp,sp,-16
1c00314c:	c422                	sw	s0,8(sp)
1c00314e:	c226                	sw	s1,4(sp)
1c003150:	842a                	mv	s0,a0
1c003152:	852e                	mv	a0,a1
1c003154:	85b2                	mv	a1,a2
1c003156:	c606                	sw	ra,12(sp)
1c003158:	1801a823          	sw	zero,400(gp) # 1c008d7c <errno>
1c00315c:	b9efe0ef          	jal	ra,1c0014fa <_kill>
1c003160:	57fd                	li	a5,-1
1c003162:	00f51663          	bne	a0,a5,1c00316e <_kill_r+0x24>
1c003166:	1901a783          	lw	a5,400(gp) # 1c008d7c <errno>
1c00316a:	c391                	beqz	a5,1c00316e <_kill_r+0x24>
1c00316c:	c01c                	sw	a5,0(s0)
1c00316e:	40b2                	lw	ra,12(sp)
1c003170:	4422                	lw	s0,8(sp)
1c003172:	4492                	lw	s1,4(sp)
1c003174:	0141                	addi	sp,sp,16
1c003176:	8082                	ret

1c003178 <_getpid_r>:
1c003178:	b76fe06f          	j	1c0014ee <_getpid>

1c00317c <__swbuf_r>:
1c00317c:	1101                	addi	sp,sp,-32
1c00317e:	cc22                	sw	s0,24(sp)
1c003180:	ca26                	sw	s1,20(sp)
1c003182:	c84a                	sw	s2,16(sp)
1c003184:	ce06                	sw	ra,28(sp)
1c003186:	c64e                	sw	s3,12(sp)
1c003188:	84aa                	mv	s1,a0
1c00318a:	892e                	mv	s2,a1
1c00318c:	8432                	mv	s0,a2
1c00318e:	c509                	beqz	a0,1c003198 <__swbuf_r+0x1c>
1c003190:	4d1c                	lw	a5,24(a0)
1c003192:	e399                	bnez	a5,1c003198 <__swbuf_r+0x1c>
1c003194:	56e000ef          	jal	ra,1c003702 <__sinit>
1c003198:	1c0087b7          	lui	a5,0x1c008
1c00319c:	32c78793          	addi	a5,a5,812 # 1c00832c <__sf_fake_stdin>
1c0031a0:	06f41b63          	bne	s0,a5,1c003216 <__swbuf_r+0x9a>
1c0031a4:	40c0                	lw	s0,4(s1)
1c0031a6:	4c1c                	lw	a5,24(s0)
1c0031a8:	c41c                	sw	a5,8(s0)
1c0031aa:	00c45783          	lhu	a5,12(s0)
1c0031ae:	8ba1                	andi	a5,a5,8
1c0031b0:	c3d9                	beqz	a5,1c003236 <__swbuf_r+0xba>
1c0031b2:	481c                	lw	a5,16(s0)
1c0031b4:	c3c9                	beqz	a5,1c003236 <__swbuf_r+0xba>
1c0031b6:	481c                	lw	a5,16(s0)
1c0031b8:	4008                	lw	a0,0(s0)
1c0031ba:	0ff97993          	andi	s3,s2,255
1c0031be:	0ff97913          	andi	s2,s2,255
1c0031c2:	8d1d                	sub	a0,a0,a5
1c0031c4:	485c                	lw	a5,20(s0)
1c0031c6:	00f54763          	blt	a0,a5,1c0031d4 <__swbuf_r+0x58>
1c0031ca:	85a2                	mv	a1,s0
1c0031cc:	8526                	mv	a0,s1
1c0031ce:	414000ef          	jal	ra,1c0035e2 <_fflush_r>
1c0031d2:	e535                	bnez	a0,1c00323e <__swbuf_r+0xc2>
1c0031d4:	441c                	lw	a5,8(s0)
1c0031d6:	0505                	addi	a0,a0,1
1c0031d8:	17fd                	addi	a5,a5,-1
1c0031da:	c41c                	sw	a5,8(s0)
1c0031dc:	401c                	lw	a5,0(s0)
1c0031de:	00178713          	addi	a4,a5,1
1c0031e2:	c018                	sw	a4,0(s0)
1c0031e4:	01378023          	sb	s3,0(a5)
1c0031e8:	485c                	lw	a5,20(s0)
1c0031ea:	00a78963          	beq	a5,a0,1c0031fc <__swbuf_r+0x80>
1c0031ee:	00c45783          	lhu	a5,12(s0)
1c0031f2:	8b85                	andi	a5,a5,1
1c0031f4:	cb89                	beqz	a5,1c003206 <__swbuf_r+0x8a>
1c0031f6:	47a9                	li	a5,10
1c0031f8:	00f91763          	bne	s2,a5,1c003206 <__swbuf_r+0x8a>
1c0031fc:	85a2                	mv	a1,s0
1c0031fe:	8526                	mv	a0,s1
1c003200:	3e2000ef          	jal	ra,1c0035e2 <_fflush_r>
1c003204:	ed0d                	bnez	a0,1c00323e <__swbuf_r+0xc2>
1c003206:	40f2                	lw	ra,28(sp)
1c003208:	4462                	lw	s0,24(sp)
1c00320a:	44d2                	lw	s1,20(sp)
1c00320c:	49b2                	lw	s3,12(sp)
1c00320e:	854a                	mv	a0,s2
1c003210:	4942                	lw	s2,16(sp)
1c003212:	6105                	addi	sp,sp,32
1c003214:	8082                	ret
1c003216:	1c0087b7          	lui	a5,0x1c008
1c00321a:	34c78793          	addi	a5,a5,844 # 1c00834c <__sf_fake_stdout>
1c00321e:	00f41463          	bne	s0,a5,1c003226 <__swbuf_r+0xaa>
1c003222:	4480                	lw	s0,8(s1)
1c003224:	b749                	j	1c0031a6 <__swbuf_r+0x2a>
1c003226:	1c0087b7          	lui	a5,0x1c008
1c00322a:	30c78793          	addi	a5,a5,780 # 1c00830c <__sf_fake_stderr>
1c00322e:	f6f41ce3          	bne	s0,a5,1c0031a6 <__swbuf_r+0x2a>
1c003232:	44c0                	lw	s0,12(s1)
1c003234:	bf8d                	j	1c0031a6 <__swbuf_r+0x2a>
1c003236:	85a2                	mv	a1,s0
1c003238:	8526                	mv	a0,s1
1c00323a:	2021                	jal	1c003242 <__swsetup_r>
1c00323c:	dd2d                	beqz	a0,1c0031b6 <__swbuf_r+0x3a>
1c00323e:	597d                	li	s2,-1
1c003240:	b7d9                	j	1c003206 <__swbuf_r+0x8a>

1c003242 <__swsetup_r>:
1c003242:	1141                	addi	sp,sp,-16
1c003244:	1c0087b7          	lui	a5,0x1c008
1c003248:	c226                	sw	s1,4(sp)
1c00324a:	4547a483          	lw	s1,1108(a5) # 1c008454 <_impure_ptr>
1c00324e:	c422                	sw	s0,8(sp)
1c003250:	c04a                	sw	s2,0(sp)
1c003252:	c606                	sw	ra,12(sp)
1c003254:	892a                	mv	s2,a0
1c003256:	842e                	mv	s0,a1
1c003258:	c491                	beqz	s1,1c003264 <__swsetup_r+0x22>
1c00325a:	4c9c                	lw	a5,24(s1)
1c00325c:	e781                	bnez	a5,1c003264 <__swsetup_r+0x22>
1c00325e:	8526                	mv	a0,s1
1c003260:	4a2000ef          	jal	ra,1c003702 <__sinit>
1c003264:	1c0087b7          	lui	a5,0x1c008
1c003268:	32c78793          	addi	a5,a5,812 # 1c00832c <__sf_fake_stdin>
1c00326c:	02f41763          	bne	s0,a5,1c00329a <__swsetup_r+0x58>
1c003270:	40c0                	lw	s0,4(s1)
1c003272:	00c41783          	lh	a5,12(s0)
1c003276:	01079713          	slli	a4,a5,0x10
1c00327a:	0087f693          	andi	a3,a5,8
1c00327e:	8341                	srli	a4,a4,0x10
1c003280:	eab5                	bnez	a3,1c0032f4 <__swsetup_r+0xb2>
1c003282:	01077693          	andi	a3,a4,16
1c003286:	ea95                	bnez	a3,1c0032ba <__swsetup_r+0x78>
1c003288:	4725                	li	a4,9
1c00328a:	00e92023          	sw	a4,0(s2)
1c00328e:	0407e793          	ori	a5,a5,64
1c003292:	00f41623          	sh	a5,12(s0)
1c003296:	557d                	li	a0,-1
1c003298:	a045                	j	1c003338 <__swsetup_r+0xf6>
1c00329a:	1c0087b7          	lui	a5,0x1c008
1c00329e:	34c78793          	addi	a5,a5,844 # 1c00834c <__sf_fake_stdout>
1c0032a2:	00f41463          	bne	s0,a5,1c0032aa <__swsetup_r+0x68>
1c0032a6:	4480                	lw	s0,8(s1)
1c0032a8:	b7e9                	j	1c003272 <__swsetup_r+0x30>
1c0032aa:	1c0087b7          	lui	a5,0x1c008
1c0032ae:	30c78793          	addi	a5,a5,780 # 1c00830c <__sf_fake_stderr>
1c0032b2:	fcf410e3          	bne	s0,a5,1c003272 <__swsetup_r+0x30>
1c0032b6:	44c0                	lw	s0,12(s1)
1c0032b8:	bf6d                	j	1c003272 <__swsetup_r+0x30>
1c0032ba:	8b11                	andi	a4,a4,4
1c0032bc:	c715                	beqz	a4,1c0032e8 <__swsetup_r+0xa6>
1c0032be:	584c                	lw	a1,52(s0)
1c0032c0:	c991                	beqz	a1,1c0032d4 <__swsetup_r+0x92>
1c0032c2:	04440793          	addi	a5,s0,68
1c0032c6:	00f58563          	beq	a1,a5,1c0032d0 <__swsetup_r+0x8e>
1c0032ca:	854a                	mv	a0,s2
1c0032cc:	821ff0ef          	jal	ra,1c002aec <_free_r>
1c0032d0:	02042a23          	sw	zero,52(s0)
1c0032d4:	00c45783          	lhu	a5,12(s0)
1c0032d8:	00042223          	sw	zero,4(s0)
1c0032dc:	fdb7f793          	andi	a5,a5,-37
1c0032e0:	00f41623          	sh	a5,12(s0)
1c0032e4:	481c                	lw	a5,16(s0)
1c0032e6:	c01c                	sw	a5,0(s0)
1c0032e8:	00c45783          	lhu	a5,12(s0)
1c0032ec:	0087e793          	ori	a5,a5,8
1c0032f0:	00f41623          	sh	a5,12(s0)
1c0032f4:	481c                	lw	a5,16(s0)
1c0032f6:	ef89                	bnez	a5,1c003310 <__swsetup_r+0xce>
1c0032f8:	00c45783          	lhu	a5,12(s0)
1c0032fc:	20000713          	li	a4,512
1c003300:	2807f793          	andi	a5,a5,640
1c003304:	00e78663          	beq	a5,a4,1c003310 <__swsetup_r+0xce>
1c003308:	85a2                	mv	a1,s0
1c00330a:	854a                	mv	a0,s2
1c00330c:	5c4000ef          	jal	ra,1c0038d0 <__smakebuf_r>
1c003310:	00c41783          	lh	a5,12(s0)
1c003314:	01079713          	slli	a4,a5,0x10
1c003318:	0017f693          	andi	a3,a5,1
1c00331c:	8341                	srli	a4,a4,0x10
1c00331e:	c29d                	beqz	a3,1c003344 <__swsetup_r+0x102>
1c003320:	4854                	lw	a3,20(s0)
1c003322:	00042423          	sw	zero,8(s0)
1c003326:	40d006b3          	neg	a3,a3
1c00332a:	cc14                	sw	a3,24(s0)
1c00332c:	4814                	lw	a3,16(s0)
1c00332e:	4501                	li	a0,0
1c003330:	e681                	bnez	a3,1c003338 <__swsetup_r+0xf6>
1c003332:	08077713          	andi	a4,a4,128
1c003336:	ff21                	bnez	a4,1c00328e <__swsetup_r+0x4c>
1c003338:	40b2                	lw	ra,12(sp)
1c00333a:	4422                	lw	s0,8(sp)
1c00333c:	4492                	lw	s1,4(sp)
1c00333e:	4902                	lw	s2,0(sp)
1c003340:	0141                	addi	sp,sp,16
1c003342:	8082                	ret
1c003344:	00277693          	andi	a3,a4,2
1c003348:	4601                	li	a2,0
1c00334a:	e291                	bnez	a3,1c00334e <__swsetup_r+0x10c>
1c00334c:	4850                	lw	a2,20(s0)
1c00334e:	c410                	sw	a2,8(s0)
1c003350:	bff1                	j	1c00332c <__swsetup_r+0xea>

1c003352 <__register_exitproc>:
1c003352:	d741a783          	lw	a5,-652(gp) # 1c008960 <_global_atexit>
1c003356:	88aa                	mv	a7,a0
1c003358:	e38d                	bnez	a5,1c00337a <__register_exitproc+0x28>
1c00335a:	ca818513          	addi	a0,gp,-856 # 1c008894 <_global_atexit0>
1c00335e:	d6a1aa23          	sw	a0,-652(gp) # 1c008960 <_global_atexit>
1c003362:	00000313          	li	t1,0
1c003366:	ca818793          	addi	a5,gp,-856 # 1c008894 <_global_atexit0>
1c00336a:	00030863          	beqz	t1,1c00337a <__register_exitproc+0x28>
1c00336e:	00002783          	lw	a5,0(zero) # 0 <__heap_size>
1c003372:	08f52423          	sw	a5,136(a0)
1c003376:	ca818793          	addi	a5,gp,-856 # 1c008894 <_global_atexit0>
1c00337a:	43d8                	lw	a4,4(a5)
1c00337c:	487d                	li	a6,31
1c00337e:	557d                	li	a0,-1
1c003380:	04e84663          	blt	a6,a4,1c0033cc <__register_exitproc+0x7a>
1c003384:	02088d63          	beqz	a7,1c0033be <__register_exitproc+0x6c>
1c003388:	0887a803          	lw	a6,136(a5)
1c00338c:	04080063          	beqz	a6,1c0033cc <__register_exitproc+0x7a>
1c003390:	00271513          	slli	a0,a4,0x2
1c003394:	9542                	add	a0,a0,a6
1c003396:	c110                	sw	a2,0(a0)
1c003398:	10082303          	lw	t1,256(a6)
1c00339c:	4605                	li	a2,1
1c00339e:	00e61633          	sll	a2,a2,a4
1c0033a2:	00c36333          	or	t1,t1,a2
1c0033a6:	10682023          	sw	t1,256(a6)
1c0033aa:	08d52023          	sw	a3,128(a0)
1c0033ae:	4689                	li	a3,2
1c0033b0:	00d89763          	bne	a7,a3,1c0033be <__register_exitproc+0x6c>
1c0033b4:	10482683          	lw	a3,260(a6)
1c0033b8:	8e55                	or	a2,a2,a3
1c0033ba:	10c82223          	sw	a2,260(a6)
1c0033be:	00170693          	addi	a3,a4,1
1c0033c2:	070a                	slli	a4,a4,0x2
1c0033c4:	c3d4                	sw	a3,4(a5)
1c0033c6:	97ba                	add	a5,a5,a4
1c0033c8:	c78c                	sw	a1,8(a5)
1c0033ca:	4501                	li	a0,0
1c0033cc:	8082                	ret

1c0033ce <__call_exitprocs>:
1c0033ce:	7179                	addi	sp,sp,-48
1c0033d0:	ca56                	sw	s5,20(sp)
1c0033d2:	c85a                	sw	s6,16(sp)
1c0033d4:	c65e                	sw	s7,12(sp)
1c0033d6:	c266                	sw	s9,4(sp)
1c0033d8:	d606                	sw	ra,44(sp)
1c0033da:	d422                	sw	s0,40(sp)
1c0033dc:	d226                	sw	s1,36(sp)
1c0033de:	d04a                	sw	s2,32(sp)
1c0033e0:	ce4e                	sw	s3,28(sp)
1c0033e2:	cc52                	sw	s4,24(sp)
1c0033e4:	c462                	sw	s8,8(sp)
1c0033e6:	c06a                	sw	s10,0(sp)
1c0033e8:	8b2a                	mv	s6,a0
1c0033ea:	8aae                	mv	s5,a1
1c0033ec:	4c85                	li	s9,1
1c0033ee:	d741a483          	lw	s1,-652(gp) # 1c008960 <_global_atexit>
1c0033f2:	d7418c13          	addi	s8,gp,-652 # 1c008960 <_global_atexit>
1c0033f6:	cc81                	beqz	s1,1c00340e <__call_exitprocs+0x40>
1c0033f8:	40c0                	lw	s0,4(s1)
1c0033fa:	0884a983          	lw	s3,136(s1)
1c0033fe:	fff40913          	addi	s2,s0,-1
1c003402:	040a                	slli	s0,s0,0x2
1c003404:	00898a33          	add	s4,s3,s0
1c003408:	9426                	add	s0,s0,s1
1c00340a:	02095063          	bgez	s2,1c00342a <__call_exitprocs+0x5c>
1c00340e:	50b2                	lw	ra,44(sp)
1c003410:	5422                	lw	s0,40(sp)
1c003412:	5492                	lw	s1,36(sp)
1c003414:	5902                	lw	s2,32(sp)
1c003416:	49f2                	lw	s3,28(sp)
1c003418:	4a62                	lw	s4,24(sp)
1c00341a:	4ad2                	lw	s5,20(sp)
1c00341c:	4b42                	lw	s6,16(sp)
1c00341e:	4bb2                	lw	s7,12(sp)
1c003420:	4c22                	lw	s8,8(sp)
1c003422:	4c92                	lw	s9,4(sp)
1c003424:	4d02                	lw	s10,0(sp)
1c003426:	6145                	addi	sp,sp,48
1c003428:	8082                	ret
1c00342a:	000a8c63          	beqz	s5,1c003442 <__call_exitprocs+0x74>
1c00342e:	00099663          	bnez	s3,1c00343a <__call_exitprocs+0x6c>
1c003432:	197d                	addi	s2,s2,-1
1c003434:	1a71                	addi	s4,s4,-4
1c003436:	1471                	addi	s0,s0,-4
1c003438:	bfc9                	j	1c00340a <__call_exitprocs+0x3c>
1c00343a:	07ca2783          	lw	a5,124(s4)
1c00343e:	ff579ae3          	bne	a5,s5,1c003432 <__call_exitprocs+0x64>
1c003442:	40d8                	lw	a4,4(s1)
1c003444:	405c                	lw	a5,4(s0)
1c003446:	177d                	addi	a4,a4,-1
1c003448:	03271863          	bne	a4,s2,1c003478 <__call_exitprocs+0xaa>
1c00344c:	0124a223          	sw	s2,4(s1)
1c003450:	d3ed                	beqz	a5,1c003432 <__call_exitprocs+0x64>
1c003452:	0044ad03          	lw	s10,4(s1)
1c003456:	00098863          	beqz	s3,1c003466 <__call_exitprocs+0x98>
1c00345a:	1009a683          	lw	a3,256(s3)
1c00345e:	012c9733          	sll	a4,s9,s2
1c003462:	8ef9                	and	a3,a3,a4
1c003464:	ee89                	bnez	a3,1c00347e <__call_exitprocs+0xb0>
1c003466:	9782                	jalr	a5
1c003468:	40d8                	lw	a4,4(s1)
1c00346a:	000c2783          	lw	a5,0(s8)
1c00346e:	f9a710e3          	bne	a4,s10,1c0033ee <__call_exitprocs+0x20>
1c003472:	fcf480e3          	beq	s1,a5,1c003432 <__call_exitprocs+0x64>
1c003476:	bfa5                	j	1c0033ee <__call_exitprocs+0x20>
1c003478:	00042223          	sw	zero,4(s0)
1c00347c:	bfd1                	j	1c003450 <__call_exitprocs+0x82>
1c00347e:	1049a683          	lw	a3,260(s3)
1c003482:	ffca2583          	lw	a1,-4(s4)
1c003486:	8f75                	and	a4,a4,a3
1c003488:	e701                	bnez	a4,1c003490 <__call_exitprocs+0xc2>
1c00348a:	855a                	mv	a0,s6
1c00348c:	9782                	jalr	a5
1c00348e:	bfe9                	j	1c003468 <__call_exitprocs+0x9a>
1c003490:	852e                	mv	a0,a1
1c003492:	9782                	jalr	a5
1c003494:	bfd1                	j	1c003468 <__call_exitprocs+0x9a>

1c003496 <__sflush_r>:
1c003496:	00c5d783          	lhu	a5,12(a1)
1c00349a:	1101                	addi	sp,sp,-32
1c00349c:	cc22                	sw	s0,24(sp)
1c00349e:	ca26                	sw	s1,20(sp)
1c0034a0:	ce06                	sw	ra,28(sp)
1c0034a2:	c84a                	sw	s2,16(sp)
1c0034a4:	c64e                	sw	s3,12(sp)
1c0034a6:	0087f713          	andi	a4,a5,8
1c0034aa:	84aa                	mv	s1,a0
1c0034ac:	842e                	mv	s0,a1
1c0034ae:	e76d                	bnez	a4,1c003598 <__sflush_r+0x102>
1c0034b0:	41d8                	lw	a4,4(a1)
1c0034b2:	00e04763          	bgtz	a4,1c0034c0 <__sflush_r+0x2a>
1c0034b6:	41b8                	lw	a4,64(a1)
1c0034b8:	00e04463          	bgtz	a4,1c0034c0 <__sflush_r+0x2a>
1c0034bc:	4501                	li	a0,0
1c0034be:	a0c9                	j	1c003580 <__sflush_r+0xea>
1c0034c0:	5458                	lw	a4,44(s0)
1c0034c2:	df6d                	beqz	a4,1c0034bc <__sflush_r+0x26>
1c0034c4:	0004a903          	lw	s2,0(s1)
1c0034c8:	01379693          	slli	a3,a5,0x13
1c0034cc:	0004a023          	sw	zero,0(s1)
1c0034d0:	0606df63          	bgez	a3,1c00354e <__sflush_r+0xb8>
1c0034d4:	4868                	lw	a0,84(s0)
1c0034d6:	00c45783          	lhu	a5,12(s0)
1c0034da:	8b91                	andi	a5,a5,4
1c0034dc:	c799                	beqz	a5,1c0034ea <__sflush_r+0x54>
1c0034de:	405c                	lw	a5,4(s0)
1c0034e0:	8d1d                	sub	a0,a0,a5
1c0034e2:	585c                	lw	a5,52(s0)
1c0034e4:	c399                	beqz	a5,1c0034ea <__sflush_r+0x54>
1c0034e6:	403c                	lw	a5,64(s0)
1c0034e8:	8d1d                	sub	a0,a0,a5
1c0034ea:	545c                	lw	a5,44(s0)
1c0034ec:	500c                	lw	a1,32(s0)
1c0034ee:	862a                	mv	a2,a0
1c0034f0:	4681                	li	a3,0
1c0034f2:	8526                	mv	a0,s1
1c0034f4:	9782                	jalr	a5
1c0034f6:	57fd                	li	a5,-1
1c0034f8:	00c45703          	lhu	a4,12(s0)
1c0034fc:	00f51d63          	bne	a0,a5,1c003516 <__sflush_r+0x80>
1c003500:	4094                	lw	a3,0(s1)
1c003502:	47f5                	li	a5,29
1c003504:	08d7e563          	bltu	a5,a3,1c00358e <__sflush_r+0xf8>
1c003508:	204007b7          	lui	a5,0x20400
1c00350c:	0785                	addi	a5,a5,1
1c00350e:	00d7d7b3          	srl	a5,a5,a3
1c003512:	8b85                	andi	a5,a5,1
1c003514:	cfad                	beqz	a5,1c00358e <__sflush_r+0xf8>
1c003516:	481c                	lw	a5,16(s0)
1c003518:	00042223          	sw	zero,4(s0)
1c00351c:	c01c                	sw	a5,0(s0)
1c00351e:	01371793          	slli	a5,a4,0x13
1c003522:	0007d863          	bgez	a5,1c003532 <__sflush_r+0x9c>
1c003526:	57fd                	li	a5,-1
1c003528:	00f51463          	bne	a0,a5,1c003530 <__sflush_r+0x9a>
1c00352c:	409c                	lw	a5,0(s1)
1c00352e:	e391                	bnez	a5,1c003532 <__sflush_r+0x9c>
1c003530:	c868                	sw	a0,84(s0)
1c003532:	584c                	lw	a1,52(s0)
1c003534:	0124a023          	sw	s2,0(s1)
1c003538:	d1d1                	beqz	a1,1c0034bc <__sflush_r+0x26>
1c00353a:	04440793          	addi	a5,s0,68
1c00353e:	00f58563          	beq	a1,a5,1c003548 <__sflush_r+0xb2>
1c003542:	8526                	mv	a0,s1
1c003544:	da8ff0ef          	jal	ra,1c002aec <_free_r>
1c003548:	02042a23          	sw	zero,52(s0)
1c00354c:	bf85                	j	1c0034bc <__sflush_r+0x26>
1c00354e:	500c                	lw	a1,32(s0)
1c003550:	4685                	li	a3,1
1c003552:	4601                	li	a2,0
1c003554:	8526                	mv	a0,s1
1c003556:	9702                	jalr	a4
1c003558:	57fd                	li	a5,-1
1c00355a:	f6f51ee3          	bne	a0,a5,1c0034d6 <__sflush_r+0x40>
1c00355e:	409c                	lw	a5,0(s1)
1c003560:	dbbd                	beqz	a5,1c0034d6 <__sflush_r+0x40>
1c003562:	4775                	li	a4,29
1c003564:	00e78563          	beq	a5,a4,1c00356e <__sflush_r+0xd8>
1c003568:	4759                	li	a4,22
1c00356a:	00e79563          	bne	a5,a4,1c003574 <__sflush_r+0xde>
1c00356e:	0124a023          	sw	s2,0(s1)
1c003572:	b7a9                	j	1c0034bc <__sflush_r+0x26>
1c003574:	00c45783          	lhu	a5,12(s0)
1c003578:	0407e793          	ori	a5,a5,64
1c00357c:	00f41623          	sh	a5,12(s0)
1c003580:	40f2                	lw	ra,28(sp)
1c003582:	4462                	lw	s0,24(sp)
1c003584:	44d2                	lw	s1,20(sp)
1c003586:	4942                	lw	s2,16(sp)
1c003588:	49b2                	lw	s3,12(sp)
1c00358a:	6105                	addi	sp,sp,32
1c00358c:	8082                	ret
1c00358e:	04076713          	ori	a4,a4,64
1c003592:	00e41623          	sh	a4,12(s0)
1c003596:	b7ed                	j	1c003580 <__sflush_r+0xea>
1c003598:	0105a983          	lw	s3,16(a1)
1c00359c:	f20980e3          	beqz	s3,1c0034bc <__sflush_r+0x26>
1c0035a0:	0005a903          	lw	s2,0(a1)
1c0035a4:	8b8d                	andi	a5,a5,3
1c0035a6:	0135a023          	sw	s3,0(a1)
1c0035aa:	41390933          	sub	s2,s2,s3
1c0035ae:	4701                	li	a4,0
1c0035b0:	e391                	bnez	a5,1c0035b4 <__sflush_r+0x11e>
1c0035b2:	49d8                	lw	a4,20(a1)
1c0035b4:	c418                	sw	a4,8(s0)
1c0035b6:	f12053e3          	blez	s2,1c0034bc <__sflush_r+0x26>
1c0035ba:	541c                	lw	a5,40(s0)
1c0035bc:	500c                	lw	a1,32(s0)
1c0035be:	86ca                	mv	a3,s2
1c0035c0:	864e                	mv	a2,s3
1c0035c2:	8526                	mv	a0,s1
1c0035c4:	9782                	jalr	a5
1c0035c6:	00a04a63          	bgtz	a0,1c0035da <__sflush_r+0x144>
1c0035ca:	00c45783          	lhu	a5,12(s0)
1c0035ce:	557d                	li	a0,-1
1c0035d0:	0407e793          	ori	a5,a5,64
1c0035d4:	00f41623          	sh	a5,12(s0)
1c0035d8:	b765                	j	1c003580 <__sflush_r+0xea>
1c0035da:	99aa                	add	s3,s3,a0
1c0035dc:	40a90933          	sub	s2,s2,a0
1c0035e0:	bfd9                	j	1c0035b6 <__sflush_r+0x120>

1c0035e2 <_fflush_r>:
1c0035e2:	499c                	lw	a5,16(a1)
1c0035e4:	cfb9                	beqz	a5,1c003642 <_fflush_r+0x60>
1c0035e6:	1101                	addi	sp,sp,-32
1c0035e8:	cc22                	sw	s0,24(sp)
1c0035ea:	ce06                	sw	ra,28(sp)
1c0035ec:	842a                	mv	s0,a0
1c0035ee:	c511                	beqz	a0,1c0035fa <_fflush_r+0x18>
1c0035f0:	4d1c                	lw	a5,24(a0)
1c0035f2:	e781                	bnez	a5,1c0035fa <_fflush_r+0x18>
1c0035f4:	c62e                	sw	a1,12(sp)
1c0035f6:	2231                	jal	1c003702 <__sinit>
1c0035f8:	45b2                	lw	a1,12(sp)
1c0035fa:	1c0087b7          	lui	a5,0x1c008
1c0035fe:	32c78793          	addi	a5,a5,812 # 1c00832c <__sf_fake_stdin>
1c003602:	00f59b63          	bne	a1,a5,1c003618 <_fflush_r+0x36>
1c003606:	404c                	lw	a1,4(s0)
1c003608:	00c59783          	lh	a5,12(a1)
1c00360c:	c795                	beqz	a5,1c003638 <_fflush_r+0x56>
1c00360e:	8522                	mv	a0,s0
1c003610:	4462                	lw	s0,24(sp)
1c003612:	40f2                	lw	ra,28(sp)
1c003614:	6105                	addi	sp,sp,32
1c003616:	b541                	j	1c003496 <__sflush_r>
1c003618:	1c0087b7          	lui	a5,0x1c008
1c00361c:	34c78793          	addi	a5,a5,844 # 1c00834c <__sf_fake_stdout>
1c003620:	00f59463          	bne	a1,a5,1c003628 <_fflush_r+0x46>
1c003624:	440c                	lw	a1,8(s0)
1c003626:	b7cd                	j	1c003608 <_fflush_r+0x26>
1c003628:	1c0087b7          	lui	a5,0x1c008
1c00362c:	30c78793          	addi	a5,a5,780 # 1c00830c <__sf_fake_stderr>
1c003630:	fcf59ce3          	bne	a1,a5,1c003608 <_fflush_r+0x26>
1c003634:	444c                	lw	a1,12(s0)
1c003636:	bfc9                	j	1c003608 <_fflush_r+0x26>
1c003638:	40f2                	lw	ra,28(sp)
1c00363a:	4462                	lw	s0,24(sp)
1c00363c:	4501                	li	a0,0
1c00363e:	6105                	addi	sp,sp,32
1c003640:	8082                	ret
1c003642:	4501                	li	a0,0
1c003644:	8082                	ret

1c003646 <std>:
1c003646:	1141                	addi	sp,sp,-16
1c003648:	c422                	sw	s0,8(sp)
1c00364a:	c606                	sw	ra,12(sp)
1c00364c:	842a                	mv	s0,a0
1c00364e:	00b51623          	sh	a1,12(a0)
1c003652:	00c51723          	sh	a2,14(a0)
1c003656:	00052023          	sw	zero,0(a0)
1c00365a:	00052223          	sw	zero,4(a0)
1c00365e:	00052423          	sw	zero,8(a0)
1c003662:	06052223          	sw	zero,100(a0)
1c003666:	00052823          	sw	zero,16(a0)
1c00366a:	00052a23          	sw	zero,20(a0)
1c00366e:	00052c23          	sw	zero,24(a0)
1c003672:	4621                	li	a2,8
1c003674:	4581                	li	a1,0
1c003676:	05c50513          	addi	a0,a0,92
1c00367a:	935fd0ef          	jal	ra,1c000fae <memset>
1c00367e:	1c0047b7          	lui	a5,0x1c004
1c003682:	d0878793          	addi	a5,a5,-760 # 1c003d08 <__sread>
1c003686:	d05c                	sw	a5,36(s0)
1c003688:	1c0047b7          	lui	a5,0x1c004
1c00368c:	d3878793          	addi	a5,a5,-712 # 1c003d38 <__swrite>
1c003690:	d41c                	sw	a5,40(s0)
1c003692:	1c0047b7          	lui	a5,0x1c004
1c003696:	d8678793          	addi	a5,a5,-634 # 1c003d86 <__sseek>
1c00369a:	d45c                	sw	a5,44(s0)
1c00369c:	1c0047b7          	lui	a5,0x1c004
1c0036a0:	dbc78793          	addi	a5,a5,-580 # 1c003dbc <__sclose>
1c0036a4:	40b2                	lw	ra,12(sp)
1c0036a6:	d000                	sw	s0,32(s0)
1c0036a8:	d81c                	sw	a5,48(s0)
1c0036aa:	4422                	lw	s0,8(sp)
1c0036ac:	0141                	addi	sp,sp,16
1c0036ae:	8082                	ret

1c0036b0 <_cleanup_r>:
1c0036b0:	1c0035b7          	lui	a1,0x1c003
1c0036b4:	5e258593          	addi	a1,a1,1506 # 1c0035e2 <_fflush_r>
1c0036b8:	aa89                	j	1c00380a <_fwalk_reent>

1c0036ba <__sfmoreglue>:
1c0036ba:	1141                	addi	sp,sp,-16
1c0036bc:	c226                	sw	s1,4(sp)
1c0036be:	06800613          	li	a2,104
1c0036c2:	fff58493          	addi	s1,a1,-1
1c0036c6:	02c484b3          	mul	s1,s1,a2
1c0036ca:	c04a                	sw	s2,0(sp)
1c0036cc:	892e                	mv	s2,a1
1c0036ce:	c422                	sw	s0,8(sp)
1c0036d0:	c606                	sw	ra,12(sp)
1c0036d2:	07448593          	addi	a1,s1,116
1c0036d6:	cbeff0ef          	jal	ra,1c002b94 <_malloc_r>
1c0036da:	842a                	mv	s0,a0
1c0036dc:	cd01                	beqz	a0,1c0036f4 <__sfmoreglue+0x3a>
1c0036de:	00052023          	sw	zero,0(a0)
1c0036e2:	01252223          	sw	s2,4(a0)
1c0036e6:	0531                	addi	a0,a0,12
1c0036e8:	c408                	sw	a0,8(s0)
1c0036ea:	06848613          	addi	a2,s1,104
1c0036ee:	4581                	li	a1,0
1c0036f0:	8bffd0ef          	jal	ra,1c000fae <memset>
1c0036f4:	40b2                	lw	ra,12(sp)
1c0036f6:	8522                	mv	a0,s0
1c0036f8:	4422                	lw	s0,8(sp)
1c0036fa:	4492                	lw	s1,4(sp)
1c0036fc:	4902                	lw	s2,0(sp)
1c0036fe:	0141                	addi	sp,sp,16
1c003700:	8082                	ret

1c003702 <__sinit>:
1c003702:	4d1c                	lw	a5,24(a0)
1c003704:	e3bd                	bnez	a5,1c00376a <__sinit+0x68>
1c003706:	1141                	addi	sp,sp,-16
1c003708:	1c0037b7          	lui	a5,0x1c003
1c00370c:	c422                	sw	s0,8(sp)
1c00370e:	c606                	sw	ra,12(sp)
1c003710:	6b078793          	addi	a5,a5,1712 # 1c0036b0 <_cleanup_r>
1c003714:	d51c                	sw	a5,40(a0)
1c003716:	1c0087b7          	lui	a5,0x1c008
1c00371a:	4647a783          	lw	a5,1124(a5) # 1c008464 <_global_impure_ptr>
1c00371e:	04052423          	sw	zero,72(a0)
1c003722:	04052623          	sw	zero,76(a0)
1c003726:	04052823          	sw	zero,80(a0)
1c00372a:	842a                	mv	s0,a0
1c00372c:	00f51463          	bne	a0,a5,1c003734 <__sinit+0x32>
1c003730:	4785                	li	a5,1
1c003732:	cd1c                	sw	a5,24(a0)
1c003734:	8522                	mv	a0,s0
1c003736:	281d                	jal	1c00376c <__sfp>
1c003738:	c048                	sw	a0,4(s0)
1c00373a:	8522                	mv	a0,s0
1c00373c:	2805                	jal	1c00376c <__sfp>
1c00373e:	c408                	sw	a0,8(s0)
1c003740:	8522                	mv	a0,s0
1c003742:	202d                	jal	1c00376c <__sfp>
1c003744:	c448                	sw	a0,12(s0)
1c003746:	4048                	lw	a0,4(s0)
1c003748:	4601                	li	a2,0
1c00374a:	4591                	li	a1,4
1c00374c:	3ded                	jal	1c003646 <std>
1c00374e:	4408                	lw	a0,8(s0)
1c003750:	4605                	li	a2,1
1c003752:	45a5                	li	a1,9
1c003754:	3dcd                	jal	1c003646 <std>
1c003756:	4448                	lw	a0,12(s0)
1c003758:	4609                	li	a2,2
1c00375a:	45c9                	li	a1,18
1c00375c:	35ed                	jal	1c003646 <std>
1c00375e:	4785                	li	a5,1
1c003760:	40b2                	lw	ra,12(sp)
1c003762:	cc1c                	sw	a5,24(s0)
1c003764:	4422                	lw	s0,8(sp)
1c003766:	0141                	addi	sp,sp,16
1c003768:	8082                	ret
1c00376a:	8082                	ret

1c00376c <__sfp>:
1c00376c:	1141                	addi	sp,sp,-16
1c00376e:	1c0087b7          	lui	a5,0x1c008
1c003772:	c226                	sw	s1,4(sp)
1c003774:	4647a483          	lw	s1,1124(a5) # 1c008464 <_global_impure_ptr>
1c003778:	c04a                	sw	s2,0(sp)
1c00377a:	c606                	sw	ra,12(sp)
1c00377c:	4c9c                	lw	a5,24(s1)
1c00377e:	c422                	sw	s0,8(sp)
1c003780:	892a                	mv	s2,a0
1c003782:	e399                	bnez	a5,1c003788 <__sfp+0x1c>
1c003784:	8526                	mv	a0,s1
1c003786:	3fb5                	jal	1c003702 <__sinit>
1c003788:	04848493          	addi	s1,s1,72
1c00378c:	4480                	lw	s0,8(s1)
1c00378e:	40dc                	lw	a5,4(s1)
1c003790:	17fd                	addi	a5,a5,-1
1c003792:	0007d663          	bgez	a5,1c00379e <__sfp+0x32>
1c003796:	409c                	lw	a5,0(s1)
1c003798:	cfb9                	beqz	a5,1c0037f6 <__sfp+0x8a>
1c00379a:	4084                	lw	s1,0(s1)
1c00379c:	bfc5                	j	1c00378c <__sfp+0x20>
1c00379e:	00c41703          	lh	a4,12(s0)
1c0037a2:	e739                	bnez	a4,1c0037f0 <__sfp+0x84>
1c0037a4:	77c1                	lui	a5,0xffff0
1c0037a6:	0785                	addi	a5,a5,1
1c0037a8:	06042223          	sw	zero,100(s0)
1c0037ac:	00042023          	sw	zero,0(s0)
1c0037b0:	00042223          	sw	zero,4(s0)
1c0037b4:	00042423          	sw	zero,8(s0)
1c0037b8:	c45c                	sw	a5,12(s0)
1c0037ba:	00042823          	sw	zero,16(s0)
1c0037be:	00042a23          	sw	zero,20(s0)
1c0037c2:	00042c23          	sw	zero,24(s0)
1c0037c6:	4621                	li	a2,8
1c0037c8:	4581                	li	a1,0
1c0037ca:	05c40513          	addi	a0,s0,92
1c0037ce:	fe0fd0ef          	jal	ra,1c000fae <memset>
1c0037d2:	02042a23          	sw	zero,52(s0)
1c0037d6:	02042c23          	sw	zero,56(s0)
1c0037da:	04042423          	sw	zero,72(s0)
1c0037de:	04042623          	sw	zero,76(s0)
1c0037e2:	40b2                	lw	ra,12(sp)
1c0037e4:	8522                	mv	a0,s0
1c0037e6:	4422                	lw	s0,8(sp)
1c0037e8:	4492                	lw	s1,4(sp)
1c0037ea:	4902                	lw	s2,0(sp)
1c0037ec:	0141                	addi	sp,sp,16
1c0037ee:	8082                	ret
1c0037f0:	06840413          	addi	s0,s0,104
1c0037f4:	bf71                	j	1c003790 <__sfp+0x24>
1c0037f6:	4591                	li	a1,4
1c0037f8:	854a                	mv	a0,s2
1c0037fa:	35c1                	jal	1c0036ba <__sfmoreglue>
1c0037fc:	c088                	sw	a0,0(s1)
1c0037fe:	842a                	mv	s0,a0
1c003800:	fd49                	bnez	a0,1c00379a <__sfp+0x2e>
1c003802:	47b1                	li	a5,12
1c003804:	00f92023          	sw	a5,0(s2)
1c003808:	bfe9                	j	1c0037e2 <__sfp+0x76>

1c00380a <_fwalk_reent>:
1c00380a:	7179                	addi	sp,sp,-48
1c00380c:	d422                	sw	s0,40(sp)
1c00380e:	d04a                	sw	s2,32(sp)
1c003810:	ce4e                	sw	s3,28(sp)
1c003812:	cc52                	sw	s4,24(sp)
1c003814:	c85a                	sw	s6,16(sp)
1c003816:	c65e                	sw	s7,12(sp)
1c003818:	d606                	sw	ra,44(sp)
1c00381a:	d226                	sw	s1,36(sp)
1c00381c:	ca56                	sw	s5,20(sp)
1c00381e:	892a                	mv	s2,a0
1c003820:	8a2e                	mv	s4,a1
1c003822:	04850413          	addi	s0,a0,72
1c003826:	4981                	li	s3,0
1c003828:	4b05                	li	s6,1
1c00382a:	5bfd                	li	s7,-1
1c00382c:	4404                	lw	s1,8(s0)
1c00382e:	00442a83          	lw	s5,4(s0)
1c003832:	1afd                	addi	s5,s5,-1
1c003834:	020ad063          	bgez	s5,1c003854 <_fwalk_reent+0x4a>
1c003838:	4000                	lw	s0,0(s0)
1c00383a:	f86d                	bnez	s0,1c00382c <_fwalk_reent+0x22>
1c00383c:	50b2                	lw	ra,44(sp)
1c00383e:	5422                	lw	s0,40(sp)
1c003840:	5492                	lw	s1,36(sp)
1c003842:	5902                	lw	s2,32(sp)
1c003844:	4a62                	lw	s4,24(sp)
1c003846:	4ad2                	lw	s5,20(sp)
1c003848:	4b42                	lw	s6,16(sp)
1c00384a:	4bb2                	lw	s7,12(sp)
1c00384c:	854e                	mv	a0,s3
1c00384e:	49f2                	lw	s3,28(sp)
1c003850:	6145                	addi	sp,sp,48
1c003852:	8082                	ret
1c003854:	00c4d783          	lhu	a5,12(s1)
1c003858:	00fb7b63          	bgeu	s6,a5,1c00386e <_fwalk_reent+0x64>
1c00385c:	00e49783          	lh	a5,14(s1)
1c003860:	01778763          	beq	a5,s7,1c00386e <_fwalk_reent+0x64>
1c003864:	85a6                	mv	a1,s1
1c003866:	854a                	mv	a0,s2
1c003868:	9a02                	jalr	s4
1c00386a:	00a9e9b3          	or	s3,s3,a0
1c00386e:	06848493          	addi	s1,s1,104
1c003872:	b7c1                	j	1c003832 <_fwalk_reent+0x28>

1c003874 <__swhatbuf_r>:
1c003874:	7159                	addi	sp,sp,-112
1c003876:	d0ca                	sw	s2,96(sp)
1c003878:	892e                	mv	s2,a1
1c00387a:	00e59583          	lh	a1,14(a1)
1c00387e:	d4a2                	sw	s0,104(sp)
1c003880:	d2a6                	sw	s1,100(sp)
1c003882:	d686                	sw	ra,108(sp)
1c003884:	8432                	mv	s0,a2
1c003886:	84b6                	mv	s1,a3
1c003888:	0005dc63          	bgez	a1,1c0038a0 <__swhatbuf_r+0x2c>
1c00388c:	00c95783          	lhu	a5,12(s2)
1c003890:	0004a023          	sw	zero,0(s1)
1c003894:	0807f793          	andi	a5,a5,128
1c003898:	e395                	bnez	a5,1c0038bc <__swhatbuf_r+0x48>
1c00389a:	40000793          	li	a5,1024
1c00389e:	a00d                	j	1c0038c0 <__swhatbuf_r+0x4c>
1c0038a0:	0030                	addi	a2,sp,8
1c0038a2:	57c000ef          	jal	ra,1c003e1e <_fstat_r>
1c0038a6:	fe0543e3          	bltz	a0,1c00388c <__swhatbuf_r+0x18>
1c0038aa:	4732                	lw	a4,12(sp)
1c0038ac:	67bd                	lui	a5,0xf
1c0038ae:	8ff9                	and	a5,a5,a4
1c0038b0:	7779                	lui	a4,0xffffe
1c0038b2:	97ba                	add	a5,a5,a4
1c0038b4:	0017b793          	seqz	a5,a5
1c0038b8:	c09c                	sw	a5,0(s1)
1c0038ba:	b7c5                	j	1c00389a <__swhatbuf_r+0x26>
1c0038bc:	04000793          	li	a5,64
1c0038c0:	50b6                	lw	ra,108(sp)
1c0038c2:	c01c                	sw	a5,0(s0)
1c0038c4:	5426                	lw	s0,104(sp)
1c0038c6:	5496                	lw	s1,100(sp)
1c0038c8:	5906                	lw	s2,96(sp)
1c0038ca:	4501                	li	a0,0
1c0038cc:	6165                	addi	sp,sp,112
1c0038ce:	8082                	ret

1c0038d0 <__smakebuf_r>:
1c0038d0:	00c5d783          	lhu	a5,12(a1)
1c0038d4:	1101                	addi	sp,sp,-32
1c0038d6:	cc22                	sw	s0,24(sp)
1c0038d8:	ce06                	sw	ra,28(sp)
1c0038da:	ca26                	sw	s1,20(sp)
1c0038dc:	c84a                	sw	s2,16(sp)
1c0038de:	8b89                	andi	a5,a5,2
1c0038e0:	842e                	mv	s0,a1
1c0038e2:	cf89                	beqz	a5,1c0038fc <__smakebuf_r+0x2c>
1c0038e4:	04740793          	addi	a5,s0,71
1c0038e8:	c01c                	sw	a5,0(s0)
1c0038ea:	c81c                	sw	a5,16(s0)
1c0038ec:	4785                	li	a5,1
1c0038ee:	c85c                	sw	a5,20(s0)
1c0038f0:	40f2                	lw	ra,28(sp)
1c0038f2:	4462                	lw	s0,24(sp)
1c0038f4:	44d2                	lw	s1,20(sp)
1c0038f6:	4942                	lw	s2,16(sp)
1c0038f8:	6105                	addi	sp,sp,32
1c0038fa:	8082                	ret
1c0038fc:	0074                	addi	a3,sp,12
1c0038fe:	0030                	addi	a2,sp,8
1c003900:	892a                	mv	s2,a0
1c003902:	3f8d                	jal	1c003874 <__swhatbuf_r>
1c003904:	45a2                	lw	a1,8(sp)
1c003906:	84aa                	mv	s1,a0
1c003908:	854a                	mv	a0,s2
1c00390a:	a8aff0ef          	jal	ra,1c002b94 <_malloc_r>
1c00390e:	ed01                	bnez	a0,1c003926 <__smakebuf_r+0x56>
1c003910:	00c41783          	lh	a5,12(s0)
1c003914:	2007f713          	andi	a4,a5,512
1c003918:	ff61                	bnez	a4,1c0038f0 <__smakebuf_r+0x20>
1c00391a:	9bf1                	andi	a5,a5,-4
1c00391c:	0027e793          	ori	a5,a5,2
1c003920:	00f41623          	sh	a5,12(s0)
1c003924:	b7c1                	j	1c0038e4 <__smakebuf_r+0x14>
1c003926:	1c0037b7          	lui	a5,0x1c003
1c00392a:	6b078793          	addi	a5,a5,1712 # 1c0036b0 <_cleanup_r>
1c00392e:	02f92423          	sw	a5,40(s2)
1c003932:	00c45783          	lhu	a5,12(s0)
1c003936:	c008                	sw	a0,0(s0)
1c003938:	c808                	sw	a0,16(s0)
1c00393a:	0807e793          	ori	a5,a5,128
1c00393e:	00f41623          	sh	a5,12(s0)
1c003942:	47a2                	lw	a5,8(sp)
1c003944:	c85c                	sw	a5,20(s0)
1c003946:	47b2                	lw	a5,12(sp)
1c003948:	cf91                	beqz	a5,1c003964 <__smakebuf_r+0x94>
1c00394a:	00e41583          	lh	a1,14(s0)
1c00394e:	854a                	mv	a0,s2
1c003950:	4fc000ef          	jal	ra,1c003e4c <_isatty_r>
1c003954:	c901                	beqz	a0,1c003964 <__smakebuf_r+0x94>
1c003956:	00c45783          	lhu	a5,12(s0)
1c00395a:	9bf1                	andi	a5,a5,-4
1c00395c:	0017e793          	ori	a5,a5,1
1c003960:	00f41623          	sh	a5,12(s0)
1c003964:	00c45503          	lhu	a0,12(s0)
1c003968:	8cc9                	or	s1,s1,a0
1c00396a:	00941623          	sh	s1,12(s0)
1c00396e:	b749                	j	1c0038f0 <__smakebuf_r+0x20>

1c003970 <memchr>:
1c003970:	0ff5f593          	andi	a1,a1,255
1c003974:	962a                	add	a2,a2,a0
1c003976:	00c51463          	bne	a0,a2,1c00397e <memchr+0xe>
1c00397a:	4501                	li	a0,0
1c00397c:	8082                	ret
1c00397e:	00054783          	lbu	a5,0(a0)
1c003982:	feb78de3          	beq	a5,a1,1c00397c <memchr+0xc>
1c003986:	0505                	addi	a0,a0,1
1c003988:	b7fd                	j	1c003976 <memchr+0x6>

1c00398a <_printf_common>:
1c00398a:	7179                	addi	sp,sp,-48
1c00398c:	cc52                	sw	s4,24(sp)
1c00398e:	499c                	lw	a5,16(a1)
1c003990:	8a3a                	mv	s4,a4
1c003992:	4598                	lw	a4,8(a1)
1c003994:	d422                	sw	s0,40(sp)
1c003996:	d226                	sw	s1,36(sp)
1c003998:	ce4e                	sw	s3,28(sp)
1c00399a:	ca56                	sw	s5,20(sp)
1c00399c:	d606                	sw	ra,44(sp)
1c00399e:	d04a                	sw	s2,32(sp)
1c0039a0:	c85a                	sw	s6,16(sp)
1c0039a2:	c65e                	sw	s7,12(sp)
1c0039a4:	89aa                	mv	s3,a0
1c0039a6:	842e                	mv	s0,a1
1c0039a8:	84b2                	mv	s1,a2
1c0039aa:	8ab6                	mv	s5,a3
1c0039ac:	00e7d363          	bge	a5,a4,1c0039b2 <_printf_common+0x28>
1c0039b0:	87ba                	mv	a5,a4
1c0039b2:	c09c                	sw	a5,0(s1)
1c0039b4:	04344703          	lbu	a4,67(s0)
1c0039b8:	c319                	beqz	a4,1c0039be <_printf_common+0x34>
1c0039ba:	0785                	addi	a5,a5,1
1c0039bc:	c09c                	sw	a5,0(s1)
1c0039be:	401c                	lw	a5,0(s0)
1c0039c0:	0207f793          	andi	a5,a5,32
1c0039c4:	c781                	beqz	a5,1c0039cc <_printf_common+0x42>
1c0039c6:	409c                	lw	a5,0(s1)
1c0039c8:	0789                	addi	a5,a5,2
1c0039ca:	c09c                	sw	a5,0(s1)
1c0039cc:	00042903          	lw	s2,0(s0)
1c0039d0:	00697913          	andi	s2,s2,6
1c0039d4:	00091a63          	bnez	s2,1c0039e8 <_printf_common+0x5e>
1c0039d8:	01940b13          	addi	s6,s0,25
1c0039dc:	5bfd                	li	s7,-1
1c0039de:	445c                	lw	a5,12(s0)
1c0039e0:	4098                	lw	a4,0(s1)
1c0039e2:	8f99                	sub	a5,a5,a4
1c0039e4:	04f94c63          	blt	s2,a5,1c003a3c <_printf_common+0xb2>
1c0039e8:	04344783          	lbu	a5,67(s0)
1c0039ec:	00f036b3          	snez	a3,a5
1c0039f0:	401c                	lw	a5,0(s0)
1c0039f2:	0207f793          	andi	a5,a5,32
1c0039f6:	eba5                	bnez	a5,1c003a66 <_printf_common+0xdc>
1c0039f8:	04340613          	addi	a2,s0,67
1c0039fc:	85d6                	mv	a1,s5
1c0039fe:	854e                	mv	a0,s3
1c003a00:	9a02                	jalr	s4
1c003a02:	57fd                	li	a5,-1
1c003a04:	04f50363          	beq	a0,a5,1c003a4a <_printf_common+0xc0>
1c003a08:	401c                	lw	a5,0(s0)
1c003a0a:	4611                	li	a2,4
1c003a0c:	4098                	lw	a4,0(s1)
1c003a0e:	8b99                	andi	a5,a5,6
1c003a10:	4454                	lw	a3,12(s0)
1c003a12:	4481                	li	s1,0
1c003a14:	00c79763          	bne	a5,a2,1c003a22 <_printf_common+0x98>
1c003a18:	40e684b3          	sub	s1,a3,a4
1c003a1c:	0004d363          	bgez	s1,1c003a22 <_printf_common+0x98>
1c003a20:	4481                	li	s1,0
1c003a22:	441c                	lw	a5,8(s0)
1c003a24:	4818                	lw	a4,16(s0)
1c003a26:	00f75463          	bge	a4,a5,1c003a2e <_printf_common+0xa4>
1c003a2a:	8f99                	sub	a5,a5,a4
1c003a2c:	94be                	add	s1,s1,a5
1c003a2e:	4901                	li	s2,0
1c003a30:	0469                	addi	s0,s0,26
1c003a32:	5b7d                	li	s6,-1
1c003a34:	05249863          	bne	s1,s2,1c003a84 <_printf_common+0xfa>
1c003a38:	4501                	li	a0,0
1c003a3a:	a809                	j	1c003a4c <_printf_common+0xc2>
1c003a3c:	4685                	li	a3,1
1c003a3e:	865a                	mv	a2,s6
1c003a40:	85d6                	mv	a1,s5
1c003a42:	854e                	mv	a0,s3
1c003a44:	9a02                	jalr	s4
1c003a46:	01751e63          	bne	a0,s7,1c003a62 <_printf_common+0xd8>
1c003a4a:	557d                	li	a0,-1
1c003a4c:	50b2                	lw	ra,44(sp)
1c003a4e:	5422                	lw	s0,40(sp)
1c003a50:	5492                	lw	s1,36(sp)
1c003a52:	5902                	lw	s2,32(sp)
1c003a54:	49f2                	lw	s3,28(sp)
1c003a56:	4a62                	lw	s4,24(sp)
1c003a58:	4ad2                	lw	s5,20(sp)
1c003a5a:	4b42                	lw	s6,16(sp)
1c003a5c:	4bb2                	lw	s7,12(sp)
1c003a5e:	6145                	addi	sp,sp,48
1c003a60:	8082                	ret
1c003a62:	0905                	addi	s2,s2,1
1c003a64:	bfad                	j	1c0039de <_printf_common+0x54>
1c003a66:	00d40733          	add	a4,s0,a3
1c003a6a:	03000613          	li	a2,48
1c003a6e:	04c701a3          	sb	a2,67(a4) # ffffe043 <__heap_l2_shared_start+0xe3fee023>
1c003a72:	04544703          	lbu	a4,69(s0)
1c003a76:	00168793          	addi	a5,a3,1
1c003a7a:	97a2                	add	a5,a5,s0
1c003a7c:	0689                	addi	a3,a3,2
1c003a7e:	04e781a3          	sb	a4,67(a5)
1c003a82:	bf9d                	j	1c0039f8 <_printf_common+0x6e>
1c003a84:	4685                	li	a3,1
1c003a86:	8622                	mv	a2,s0
1c003a88:	85d6                	mv	a1,s5
1c003a8a:	854e                	mv	a0,s3
1c003a8c:	9a02                	jalr	s4
1c003a8e:	fb650ee3          	beq	a0,s6,1c003a4a <_printf_common+0xc0>
1c003a92:	0905                	addi	s2,s2,1
1c003a94:	b745                	j	1c003a34 <_printf_common+0xaa>

1c003a96 <_printf_i>:
1c003a96:	7179                	addi	sp,sp,-48
1c003a98:	d422                	sw	s0,40(sp)
1c003a9a:	d226                	sw	s1,36(sp)
1c003a9c:	d04a                	sw	s2,32(sp)
1c003a9e:	ce4e                	sw	s3,28(sp)
1c003aa0:	d606                	sw	ra,44(sp)
1c003aa2:	cc52                	sw	s4,24(sp)
1c003aa4:	ca56                	sw	s5,20(sp)
1c003aa6:	c85a                	sw	s6,16(sp)
1c003aa8:	0185c803          	lbu	a6,24(a1)
1c003aac:	07800793          	li	a5,120
1c003ab0:	84aa                	mv	s1,a0
1c003ab2:	842e                	mv	s0,a1
1c003ab4:	8932                	mv	s2,a2
1c003ab6:	89b6                	mv	s3,a3
1c003ab8:	0107ee63          	bltu	a5,a6,1c003ad4 <_printf_i+0x3e>
1c003abc:	06200793          	li	a5,98
1c003ac0:	04358693          	addi	a3,a1,67
1c003ac4:	0107ed63          	bltu	a5,a6,1c003ade <_printf_i+0x48>
1c003ac8:	1c080563          	beqz	a6,1c003c92 <_printf_i+0x1fc>
1c003acc:	05800793          	li	a5,88
1c003ad0:	12f80a63          	beq	a6,a5,1c003c04 <_printf_i+0x16e>
1c003ad4:	04240a93          	addi	s5,s0,66
1c003ad8:	05040123          	sb	a6,66(s0)
1c003adc:	a80d                	j	1c003b0e <_printf_i+0x78>
1c003ade:	f9d80793          	addi	a5,a6,-99
1c003ae2:	0ff7f793          	andi	a5,a5,255
1c003ae6:	4655                	li	a2,21
1c003ae8:	fef666e3          	bltu	a2,a5,1c003ad4 <_printf_i+0x3e>
1c003aec:	1c008637          	lui	a2,0x1c008
1c003af0:	078a                	slli	a5,a5,0x2
1c003af2:	39460613          	addi	a2,a2,916 # 1c008394 <__sf_fake_stdout+0x48>
1c003af6:	97b2                	add	a5,a5,a2
1c003af8:	439c                	lw	a5,0(a5)
1c003afa:	8782                	jr	a5
1c003afc:	431c                	lw	a5,0(a4)
1c003afe:	04258a93          	addi	s5,a1,66
1c003b02:	00478693          	addi	a3,a5,4
1c003b06:	439c                	lw	a5,0(a5)
1c003b08:	c314                	sw	a3,0(a4)
1c003b0a:	04f58123          	sb	a5,66(a1)
1c003b0e:	4785                	li	a5,1
1c003b10:	a26d                	j	1c003cba <_printf_i+0x224>
1c003b12:	419c                	lw	a5,0(a1)
1c003b14:	4308                	lw	a0,0(a4)
1c003b16:	0807f613          	andi	a2,a5,128
1c003b1a:	00450593          	addi	a1,a0,4
1c003b1e:	c20d                	beqz	a2,1c003b40 <_printf_i+0xaa>
1c003b20:	411c                	lw	a5,0(a0)
1c003b22:	c30c                	sw	a1,0(a4)
1c003b24:	1c0085b7          	lui	a1,0x1c008
1c003b28:	0007d863          	bgez	a5,1c003b38 <_printf_i+0xa2>
1c003b2c:	02d00713          	li	a4,45
1c003b30:	40f007b3          	neg	a5,a5
1c003b34:	04e401a3          	sb	a4,67(s0)
1c003b38:	36c58593          	addi	a1,a1,876 # 1c00836c <__sf_fake_stdout+0x20>
1c003b3c:	4729                	li	a4,10
1c003b3e:	a0a1                	j	1c003b86 <_printf_i+0xf0>
1c003b40:	0407f613          	andi	a2,a5,64
1c003b44:	411c                	lw	a5,0(a0)
1c003b46:	c30c                	sw	a1,0(a4)
1c003b48:	de71                	beqz	a2,1c003b24 <_printf_i+0x8e>
1c003b4a:	07c2                	slli	a5,a5,0x10
1c003b4c:	87c1                	srai	a5,a5,0x10
1c003b4e:	bfd9                	j	1c003b24 <_printf_i+0x8e>
1c003b50:	4190                	lw	a2,0(a1)
1c003b52:	431c                	lw	a5,0(a4)
1c003b54:	08067513          	andi	a0,a2,128
1c003b58:	00478593          	addi	a1,a5,4
1c003b5c:	c501                	beqz	a0,1c003b64 <_printf_i+0xce>
1c003b5e:	c30c                	sw	a1,0(a4)
1c003b60:	439c                	lw	a5,0(a5)
1c003b62:	a039                	j	1c003b70 <_printf_i+0xda>
1c003b64:	04067613          	andi	a2,a2,64
1c003b68:	c30c                	sw	a1,0(a4)
1c003b6a:	da7d                	beqz	a2,1c003b60 <_printf_i+0xca>
1c003b6c:	0007d783          	lhu	a5,0(a5)
1c003b70:	1c0085b7          	lui	a1,0x1c008
1c003b74:	06f00713          	li	a4,111
1c003b78:	36c58593          	addi	a1,a1,876 # 1c00836c <__sf_fake_stdout+0x20>
1c003b7c:	0ee80563          	beq	a6,a4,1c003c66 <_printf_i+0x1d0>
1c003b80:	4729                	li	a4,10
1c003b82:	040401a3          	sb	zero,67(s0)
1c003b86:	4050                	lw	a2,4(s0)
1c003b88:	c410                	sw	a2,8(s0)
1c003b8a:	00064563          	bltz	a2,1c003b94 <_printf_i+0xfe>
1c003b8e:	4008                	lw	a0,0(s0)
1c003b90:	996d                	andi	a0,a0,-5
1c003b92:	c008                	sw	a0,0(s0)
1c003b94:	e399                	bnez	a5,1c003b9a <_printf_i+0x104>
1c003b96:	8ab6                	mv	s5,a3
1c003b98:	ce19                	beqz	a2,1c003bb6 <_printf_i+0x120>
1c003b9a:	8ab6                	mv	s5,a3
1c003b9c:	02e7f633          	remu	a2,a5,a4
1c003ba0:	1afd                	addi	s5,s5,-1
1c003ba2:	962e                	add	a2,a2,a1
1c003ba4:	00064603          	lbu	a2,0(a2)
1c003ba8:	00ca8023          	sb	a2,0(s5)
1c003bac:	863e                	mv	a2,a5
1c003bae:	02e7d7b3          	divu	a5,a5,a4
1c003bb2:	fee675e3          	bgeu	a2,a4,1c003b9c <_printf_i+0x106>
1c003bb6:	47a1                	li	a5,8
1c003bb8:	00f71e63          	bne	a4,a5,1c003bd4 <_printf_i+0x13e>
1c003bbc:	401c                	lw	a5,0(s0)
1c003bbe:	8b85                	andi	a5,a5,1
1c003bc0:	cb91                	beqz	a5,1c003bd4 <_printf_i+0x13e>
1c003bc2:	4058                	lw	a4,4(s0)
1c003bc4:	481c                	lw	a5,16(s0)
1c003bc6:	00e7c763          	blt	a5,a4,1c003bd4 <_printf_i+0x13e>
1c003bca:	03000793          	li	a5,48
1c003bce:	fefa8fa3          	sb	a5,-1(s5)
1c003bd2:	1afd                	addi	s5,s5,-1
1c003bd4:	415686b3          	sub	a3,a3,s5
1c003bd8:	c814                	sw	a3,16(s0)
1c003bda:	874e                	mv	a4,s3
1c003bdc:	86ca                	mv	a3,s2
1c003bde:	0070                	addi	a2,sp,12
1c003be0:	85a2                	mv	a1,s0
1c003be2:	8526                	mv	a0,s1
1c003be4:	da7ff0ef          	jal	ra,1c00398a <_printf_common>
1c003be8:	5a7d                	li	s4,-1
1c003bea:	0d451c63          	bne	a0,s4,1c003cc2 <_printf_i+0x22c>
1c003bee:	557d                	li	a0,-1
1c003bf0:	50b2                	lw	ra,44(sp)
1c003bf2:	5422                	lw	s0,40(sp)
1c003bf4:	5492                	lw	s1,36(sp)
1c003bf6:	5902                	lw	s2,32(sp)
1c003bf8:	49f2                	lw	s3,28(sp)
1c003bfa:	4a62                	lw	s4,24(sp)
1c003bfc:	4ad2                	lw	s5,20(sp)
1c003bfe:	4b42                	lw	s6,16(sp)
1c003c00:	6145                	addi	sp,sp,48
1c003c02:	8082                	ret
1c003c04:	050582a3          	sb	a6,69(a1)
1c003c08:	1c0085b7          	lui	a1,0x1c008
1c003c0c:	36c58593          	addi	a1,a1,876 # 1c00836c <__sf_fake_stdout+0x20>
1c003c10:	4010                	lw	a2,0(s0)
1c003c12:	4308                	lw	a0,0(a4)
1c003c14:	08067813          	andi	a6,a2,128
1c003c18:	411c                	lw	a5,0(a0)
1c003c1a:	0511                	addi	a0,a0,4
1c003c1c:	02080d63          	beqz	a6,1c003c56 <_printf_i+0x1c0>
1c003c20:	c308                	sw	a0,0(a4)
1c003c22:	00167713          	andi	a4,a2,1
1c003c26:	c701                	beqz	a4,1c003c2e <_printf_i+0x198>
1c003c28:	02066613          	ori	a2,a2,32
1c003c2c:	c010                	sw	a2,0(s0)
1c003c2e:	4741                	li	a4,16
1c003c30:	fba9                	bnez	a5,1c003b82 <_printf_i+0xec>
1c003c32:	4010                	lw	a2,0(s0)
1c003c34:	fdf67613          	andi	a2,a2,-33
1c003c38:	c010                	sw	a2,0(s0)
1c003c3a:	b7a1                	j	1c003b82 <_printf_i+0xec>
1c003c3c:	419c                	lw	a5,0(a1)
1c003c3e:	0207e793          	ori	a5,a5,32
1c003c42:	c19c                	sw	a5,0(a1)
1c003c44:	07800793          	li	a5,120
1c003c48:	1c0085b7          	lui	a1,0x1c008
1c003c4c:	04f402a3          	sb	a5,69(s0)
1c003c50:	38058593          	addi	a1,a1,896 # 1c008380 <__sf_fake_stdout+0x34>
1c003c54:	bf75                	j	1c003c10 <_printf_i+0x17a>
1c003c56:	04067813          	andi	a6,a2,64
1c003c5a:	c308                	sw	a0,0(a4)
1c003c5c:	fc0803e3          	beqz	a6,1c003c22 <_printf_i+0x18c>
1c003c60:	07c2                	slli	a5,a5,0x10
1c003c62:	83c1                	srli	a5,a5,0x10
1c003c64:	bf7d                	j	1c003c22 <_printf_i+0x18c>
1c003c66:	4721                	li	a4,8
1c003c68:	bf29                	j	1c003b82 <_printf_i+0xec>
1c003c6a:	4190                	lw	a2,0(a1)
1c003c6c:	431c                	lw	a5,0(a4)
1c003c6e:	49cc                	lw	a1,20(a1)
1c003c70:	08067813          	andi	a6,a2,128
1c003c74:	00478513          	addi	a0,a5,4
1c003c78:	00080663          	beqz	a6,1c003c84 <_printf_i+0x1ee>
1c003c7c:	c308                	sw	a0,0(a4)
1c003c7e:	439c                	lw	a5,0(a5)
1c003c80:	c38c                	sw	a1,0(a5)
1c003c82:	a801                	j	1c003c92 <_printf_i+0x1fc>
1c003c84:	c308                	sw	a0,0(a4)
1c003c86:	04067613          	andi	a2,a2,64
1c003c8a:	439c                	lw	a5,0(a5)
1c003c8c:	da75                	beqz	a2,1c003c80 <_printf_i+0x1ea>
1c003c8e:	00b79023          	sh	a1,0(a5)
1c003c92:	00042823          	sw	zero,16(s0)
1c003c96:	8ab6                	mv	s5,a3
1c003c98:	b789                	j	1c003bda <_printf_i+0x144>
1c003c9a:	431c                	lw	a5,0(a4)
1c003c9c:	41d0                	lw	a2,4(a1)
1c003c9e:	4581                	li	a1,0
1c003ca0:	00478693          	addi	a3,a5,4
1c003ca4:	c314                	sw	a3,0(a4)
1c003ca6:	0007aa83          	lw	s5,0(a5)
1c003caa:	8556                	mv	a0,s5
1c003cac:	cc5ff0ef          	jal	ra,1c003970 <memchr>
1c003cb0:	c501                	beqz	a0,1c003cb8 <_printf_i+0x222>
1c003cb2:	41550533          	sub	a0,a0,s5
1c003cb6:	c048                	sw	a0,4(s0)
1c003cb8:	405c                	lw	a5,4(s0)
1c003cba:	c81c                	sw	a5,16(s0)
1c003cbc:	040401a3          	sb	zero,67(s0)
1c003cc0:	bf29                	j	1c003bda <_printf_i+0x144>
1c003cc2:	4814                	lw	a3,16(s0)
1c003cc4:	8656                	mv	a2,s5
1c003cc6:	85ca                	mv	a1,s2
1c003cc8:	8526                	mv	a0,s1
1c003cca:	9982                	jalr	s3
1c003ccc:	f34501e3          	beq	a0,s4,1c003bee <_printf_i+0x158>
1c003cd0:	401c                	lw	a5,0(s0)
1c003cd2:	8b89                	andi	a5,a5,2
1c003cd4:	e78d                	bnez	a5,1c003cfe <_printf_i+0x268>
1c003cd6:	47b2                	lw	a5,12(sp)
1c003cd8:	4448                	lw	a0,12(s0)
1c003cda:	f0f55be3          	bge	a0,a5,1c003bf0 <_printf_i+0x15a>
1c003cde:	853e                	mv	a0,a5
1c003ce0:	bf01                	j	1c003bf0 <_printf_i+0x15a>
1c003ce2:	4685                	li	a3,1
1c003ce4:	8656                	mv	a2,s5
1c003ce6:	85ca                	mv	a1,s2
1c003ce8:	8526                	mv	a0,s1
1c003cea:	9982                	jalr	s3
1c003cec:	f16501e3          	beq	a0,s6,1c003bee <_printf_i+0x158>
1c003cf0:	0a05                	addi	s4,s4,1
1c003cf2:	445c                	lw	a5,12(s0)
1c003cf4:	4732                	lw	a4,12(sp)
1c003cf6:	8f99                	sub	a5,a5,a4
1c003cf8:	fefa45e3          	blt	s4,a5,1c003ce2 <_printf_i+0x24c>
1c003cfc:	bfe9                	j	1c003cd6 <_printf_i+0x240>
1c003cfe:	4a01                	li	s4,0
1c003d00:	01940a93          	addi	s5,s0,25
1c003d04:	5b7d                	li	s6,-1
1c003d06:	b7f5                	j	1c003cf2 <_printf_i+0x25c>

1c003d08 <__sread>:
1c003d08:	1141                	addi	sp,sp,-16
1c003d0a:	c422                	sw	s0,8(sp)
1c003d0c:	842e                	mv	s0,a1
1c003d0e:	00e59583          	lh	a1,14(a1)
1c003d12:	c606                	sw	ra,12(sp)
1c003d14:	2a51                	jal	1c003ea8 <_read_r>
1c003d16:	00054963          	bltz	a0,1c003d28 <__sread+0x20>
1c003d1a:	487c                	lw	a5,84(s0)
1c003d1c:	97aa                	add	a5,a5,a0
1c003d1e:	c87c                	sw	a5,84(s0)
1c003d20:	40b2                	lw	ra,12(sp)
1c003d22:	4422                	lw	s0,8(sp)
1c003d24:	0141                	addi	sp,sp,16
1c003d26:	8082                	ret
1c003d28:	00c45783          	lhu	a5,12(s0)
1c003d2c:	777d                	lui	a4,0xfffff
1c003d2e:	177d                	addi	a4,a4,-1
1c003d30:	8ff9                	and	a5,a5,a4
1c003d32:	00f41623          	sh	a5,12(s0)
1c003d36:	b7ed                	j	1c003d20 <__sread+0x18>

1c003d38 <__swrite>:
1c003d38:	00c5d783          	lhu	a5,12(a1)
1c003d3c:	1101                	addi	sp,sp,-32
1c003d3e:	cc22                	sw	s0,24(sp)
1c003d40:	ca26                	sw	s1,20(sp)
1c003d42:	c84a                	sw	s2,16(sp)
1c003d44:	c64e                	sw	s3,12(sp)
1c003d46:	ce06                	sw	ra,28(sp)
1c003d48:	1007f793          	andi	a5,a5,256
1c003d4c:	84aa                	mv	s1,a0
1c003d4e:	842e                	mv	s0,a1
1c003d50:	8932                	mv	s2,a2
1c003d52:	89b6                	mv	s3,a3
1c003d54:	c791                	beqz	a5,1c003d60 <__swrite+0x28>
1c003d56:	00e59583          	lh	a1,14(a1)
1c003d5a:	4689                	li	a3,2
1c003d5c:	4601                	li	a2,0
1c003d5e:	2a29                	jal	1c003e78 <_lseek_r>
1c003d60:	00c45783          	lhu	a5,12(s0)
1c003d64:	777d                	lui	a4,0xfffff
1c003d66:	177d                	addi	a4,a4,-1
1c003d68:	8ff9                	and	a5,a5,a4
1c003d6a:	00e41583          	lh	a1,14(s0)
1c003d6e:	00f41623          	sh	a5,12(s0)
1c003d72:	4462                	lw	s0,24(sp)
1c003d74:	40f2                	lw	ra,28(sp)
1c003d76:	86ce                	mv	a3,s3
1c003d78:	864a                	mv	a2,s2
1c003d7a:	49b2                	lw	s3,12(sp)
1c003d7c:	4942                	lw	s2,16(sp)
1c003d7e:	8526                	mv	a0,s1
1c003d80:	44d2                	lw	s1,20(sp)
1c003d82:	6105                	addi	sp,sp,32
1c003d84:	a83d                	j	1c003dc2 <_write_r>

1c003d86 <__sseek>:
1c003d86:	1141                	addi	sp,sp,-16
1c003d88:	c422                	sw	s0,8(sp)
1c003d8a:	842e                	mv	s0,a1
1c003d8c:	00e59583          	lh	a1,14(a1)
1c003d90:	c606                	sw	ra,12(sp)
1c003d92:	20dd                	jal	1c003e78 <_lseek_r>
1c003d94:	57fd                	li	a5,-1
1c003d96:	00c45703          	lhu	a4,12(s0)
1c003d9a:	00f51b63          	bne	a0,a5,1c003db0 <__sseek+0x2a>
1c003d9e:	77fd                	lui	a5,0xfffff
1c003da0:	17fd                	addi	a5,a5,-1
1c003da2:	8ff9                	and	a5,a5,a4
1c003da4:	00f41623          	sh	a5,12(s0)
1c003da8:	40b2                	lw	ra,12(sp)
1c003daa:	4422                	lw	s0,8(sp)
1c003dac:	0141                	addi	sp,sp,16
1c003dae:	8082                	ret
1c003db0:	6785                	lui	a5,0x1
1c003db2:	8fd9                	or	a5,a5,a4
1c003db4:	00f41623          	sh	a5,12(s0)
1c003db8:	c868                	sw	a0,84(s0)
1c003dba:	b7fd                	j	1c003da8 <__sseek+0x22>

1c003dbc <__sclose>:
1c003dbc:	00e59583          	lh	a1,14(a1)
1c003dc0:	a80d                	j	1c003df2 <_close_r>

1c003dc2 <_write_r>:
1c003dc2:	1141                	addi	sp,sp,-16
1c003dc4:	c422                	sw	s0,8(sp)
1c003dc6:	c226                	sw	s1,4(sp)
1c003dc8:	842a                	mv	s0,a0
1c003dca:	852e                	mv	a0,a1
1c003dcc:	85b2                	mv	a1,a2
1c003dce:	8636                	mv	a2,a3
1c003dd0:	c606                	sw	ra,12(sp)
1c003dd2:	1801a823          	sw	zero,400(gp) # 1c008d7c <errno>
1c003dd6:	f36fd0ef          	jal	ra,1c00150c <_write>
1c003dda:	57fd                	li	a5,-1
1c003ddc:	00f51663          	bne	a0,a5,1c003de8 <_write_r+0x26>
1c003de0:	1901a783          	lw	a5,400(gp) # 1c008d7c <errno>
1c003de4:	c391                	beqz	a5,1c003de8 <_write_r+0x26>
1c003de6:	c01c                	sw	a5,0(s0)
1c003de8:	40b2                	lw	ra,12(sp)
1c003dea:	4422                	lw	s0,8(sp)
1c003dec:	4492                	lw	s1,4(sp)
1c003dee:	0141                	addi	sp,sp,16
1c003df0:	8082                	ret

1c003df2 <_close_r>:
1c003df2:	1141                	addi	sp,sp,-16
1c003df4:	c422                	sw	s0,8(sp)
1c003df6:	c226                	sw	s1,4(sp)
1c003df8:	842a                	mv	s0,a0
1c003dfa:	852e                	mv	a0,a1
1c003dfc:	c606                	sw	ra,12(sp)
1c003dfe:	1801a823          	sw	zero,400(gp) # 1c008d7c <errno>
1c003e02:	ea4fd0ef          	jal	ra,1c0014a6 <_close>
1c003e06:	57fd                	li	a5,-1
1c003e08:	00f51663          	bne	a0,a5,1c003e14 <_close_r+0x22>
1c003e0c:	1901a783          	lw	a5,400(gp) # 1c008d7c <errno>
1c003e10:	c391                	beqz	a5,1c003e14 <_close_r+0x22>
1c003e12:	c01c                	sw	a5,0(s0)
1c003e14:	40b2                	lw	ra,12(sp)
1c003e16:	4422                	lw	s0,8(sp)
1c003e18:	4492                	lw	s1,4(sp)
1c003e1a:	0141                	addi	sp,sp,16
1c003e1c:	8082                	ret

1c003e1e <_fstat_r>:
1c003e1e:	1141                	addi	sp,sp,-16
1c003e20:	c422                	sw	s0,8(sp)
1c003e22:	c226                	sw	s1,4(sp)
1c003e24:	842a                	mv	s0,a0
1c003e26:	852e                	mv	a0,a1
1c003e28:	85b2                	mv	a1,a2
1c003e2a:	c606                	sw	ra,12(sp)
1c003e2c:	1801a823          	sw	zero,400(gp) # 1c008d7c <errno>
1c003e30:	eb6fd0ef          	jal	ra,1c0014e6 <_fstat>
1c003e34:	57fd                	li	a5,-1
1c003e36:	00f51663          	bne	a0,a5,1c003e42 <_fstat_r+0x24>
1c003e3a:	1901a783          	lw	a5,400(gp) # 1c008d7c <errno>
1c003e3e:	c391                	beqz	a5,1c003e42 <_fstat_r+0x24>
1c003e40:	c01c                	sw	a5,0(s0)
1c003e42:	40b2                	lw	ra,12(sp)
1c003e44:	4422                	lw	s0,8(sp)
1c003e46:	4492                	lw	s1,4(sp)
1c003e48:	0141                	addi	sp,sp,16
1c003e4a:	8082                	ret

1c003e4c <_isatty_r>:
1c003e4c:	1141                	addi	sp,sp,-16
1c003e4e:	c422                	sw	s0,8(sp)
1c003e50:	c226                	sw	s1,4(sp)
1c003e52:	842a                	mv	s0,a0
1c003e54:	852e                	mv	a0,a1
1c003e56:	c606                	sw	ra,12(sp)
1c003e58:	1801a823          	sw	zero,400(gp) # 1c008d7c <errno>
1c003e5c:	e96fd0ef          	jal	ra,1c0014f2 <_isatty>
1c003e60:	57fd                	li	a5,-1
1c003e62:	00f51663          	bne	a0,a5,1c003e6e <_isatty_r+0x22>
1c003e66:	1901a783          	lw	a5,400(gp) # 1c008d7c <errno>
1c003e6a:	c391                	beqz	a5,1c003e6e <_isatty_r+0x22>
1c003e6c:	c01c                	sw	a5,0(s0)
1c003e6e:	40b2                	lw	ra,12(sp)
1c003e70:	4422                	lw	s0,8(sp)
1c003e72:	4492                	lw	s1,4(sp)
1c003e74:	0141                	addi	sp,sp,16
1c003e76:	8082                	ret

1c003e78 <_lseek_r>:
1c003e78:	1141                	addi	sp,sp,-16
1c003e7a:	c422                	sw	s0,8(sp)
1c003e7c:	c226                	sw	s1,4(sp)
1c003e7e:	842a                	mv	s0,a0
1c003e80:	852e                	mv	a0,a1
1c003e82:	85b2                	mv	a1,a2
1c003e84:	8636                	mv	a2,a3
1c003e86:	c606                	sw	ra,12(sp)
1c003e88:	1801a823          	sw	zero,400(gp) # 1c008d7c <errno>
1c003e8c:	e78fd0ef          	jal	ra,1c001504 <_lseek>
1c003e90:	57fd                	li	a5,-1
1c003e92:	00f51663          	bne	a0,a5,1c003e9e <_lseek_r+0x26>
1c003e96:	1901a783          	lw	a5,400(gp) # 1c008d7c <errno>
1c003e9a:	c391                	beqz	a5,1c003e9e <_lseek_r+0x26>
1c003e9c:	c01c                	sw	a5,0(s0)
1c003e9e:	40b2                	lw	ra,12(sp)
1c003ea0:	4422                	lw	s0,8(sp)
1c003ea2:	4492                	lw	s1,4(sp)
1c003ea4:	0141                	addi	sp,sp,16
1c003ea6:	8082                	ret

1c003ea8 <_read_r>:
1c003ea8:	1141                	addi	sp,sp,-16
1c003eaa:	c422                	sw	s0,8(sp)
1c003eac:	c226                	sw	s1,4(sp)
1c003eae:	842a                	mv	s0,a0
1c003eb0:	852e                	mv	a0,a1
1c003eb2:	85b2                	mv	a1,a2
1c003eb4:	8636                	mv	a2,a3
1c003eb6:	c606                	sw	ra,12(sp)
1c003eb8:	1801a823          	sw	zero,400(gp) # 1c008d7c <errno>
1c003ebc:	e4cfd0ef          	jal	ra,1c001508 <_read>
1c003ec0:	57fd                	li	a5,-1
1c003ec2:	00f51663          	bne	a0,a5,1c003ece <_read_r+0x26>
1c003ec6:	1901a783          	lw	a5,400(gp) # 1c008d7c <errno>
1c003eca:	c391                	beqz	a5,1c003ece <_read_r+0x26>
1c003ecc:	c01c                	sw	a5,0(s0)
1c003ece:	40b2                	lw	ra,12(sp)
1c003ed0:	4422                	lw	s0,8(sp)
1c003ed2:	4492                	lw	s1,4(sp)
1c003ed4:	0141                	addi	sp,sp,16
1c003ed6:	8082                	ret
